---
triple:          'arm64-apple-darwin'
binary-path:     webserv
relocations:
  - { offsetInCU: 0x3B, offset: 0x3B, size: 0x8, addend: 0x0, symName: _.str, symObjAddr: 0x47AA0, symBinAddr: 0x100048E00, symSize: 0x0 }
  - { offsetInCU: 0x6B, offset: 0x6B, size: 0x8, addend: 0x0, symName: _.str.1, symObjAddr: 0x47AE0, symBinAddr: 0x100048E40, symSize: 0x0 }
  - { offsetInCU: 0x88, offset: 0x88, size: 0x8, addend: 0x0, symName: _.str.2, symObjAddr: 0x47B00, symBinAddr: 0x100048E60, symSize: 0x0 }
  - { offsetInCU: 0xA5, offset: 0xA5, size: 0x8, addend: 0x0, symName: _.str.3, symObjAddr: 0x47B20, symBinAddr: 0x100048E80, symSize: 0x0 }
  - { offsetInCU: 0xC2, offset: 0xC2, size: 0x8, addend: 0x0, symName: _.str.4, symObjAddr: 0x47B40, symBinAddr: 0x100048EA0, symSize: 0x0 }
  - { offsetInCU: 0xDF, offset: 0xDF, size: 0x8, addend: 0x0, symName: _.str.5, symObjAddr: 0x47B60, symBinAddr: 0x100048EC0, symSize: 0x0 }
  - { offsetInCU: 0xFC, offset: 0xFC, size: 0x8, addend: 0x0, symName: _.str.6, symObjAddr: 0x47BC0, symBinAddr: 0x100048F20, symSize: 0x0 }
  - { offsetInCU: 0x10D, offset: 0x10D, size: 0x8, addend: 0x0, symName: _.str.7, symObjAddr: 0x47BE0, symBinAddr: 0x100048F40, symSize: 0x0 }
  - { offsetInCU: 0x12A, offset: 0x12A, size: 0x8, addend: 0x0, symName: _.str.8, symObjAddr: 0x47C00, symBinAddr: 0x100048F60, symSize: 0x0 }
  - { offsetInCU: 0x147, offset: 0x147, size: 0x8, addend: 0x0, symName: _.str.9, symObjAddr: 0x47C40, symBinAddr: 0x100048FA0, symSize: 0x0 }
  - { offsetInCU: 0x164, offset: 0x164, size: 0x8, addend: 0x0, symName: _.str.10, symObjAddr: 0x47C80, symBinAddr: 0x100048FE0, symSize: 0x0 }
  - { offsetInCU: 0x175, offset: 0x175, size: 0x8, addend: 0x0, symName: _.str.11, symObjAddr: 0x47CA0, symBinAddr: 0x100049000, symSize: 0x0 }
  - { offsetInCU: 0x186, offset: 0x186, size: 0x8, addend: 0x0, symName: _.str.12, symObjAddr: 0x47CC0, symBinAddr: 0x100049020, symSize: 0x0 }
  - { offsetInCU: 0x1A3, offset: 0x1A3, size: 0x8, addend: 0x0, symName: _.str.13, symObjAddr: 0x47CE0, symBinAddr: 0x100049040, symSize: 0x0 }
  - { offsetInCU: 0x1C0, offset: 0x1C0, size: 0x8, addend: 0x0, symName: _.str.14, symObjAddr: 0x47D20, symBinAddr: 0x100049080, symSize: 0x0 }
  - { offsetInCU: 0x1DD, offset: 0x1DD, size: 0x8, addend: 0x0, symName: _.str.15, symObjAddr: 0x47D40, symBinAddr: 0x1000490A0, symSize: 0x0 }
  - { offsetInCU: 0x1EE, offset: 0x1EE, size: 0x8, addend: 0x0, symName: _.str.16, symObjAddr: 0x47D60, symBinAddr: 0x1000490C0, symSize: 0x0 }
  - { offsetInCU: 0x1FF, offset: 0x1FF, size: 0x8, addend: 0x0, symName: _.str.17, symObjAddr: 0x47D80, symBinAddr: 0x1000490E0, symSize: 0x0 }
  - { offsetInCU: 0x21C, offset: 0x21C, size: 0x8, addend: 0x0, symName: _.str.18, symObjAddr: 0x47DA0, symBinAddr: 0x100049100, symSize: 0x0 }
  - { offsetInCU: 0x22D, offset: 0x22D, size: 0x8, addend: 0x0, symName: _.str.19, symObjAddr: 0x47DC0, symBinAddr: 0x100049120, symSize: 0x0 }
  - { offsetInCU: 0x24A, offset: 0x24A, size: 0x8, addend: 0x0, symName: _.str.20, symObjAddr: 0x47DE0, symBinAddr: 0x100049140, symSize: 0x0 }
  - { offsetInCU: 0x25B, offset: 0x25B, size: 0x8, addend: 0x0, symName: _.str.21, symObjAddr: 0x47E00, symBinAddr: 0x100049160, symSize: 0x0 }
  - { offsetInCU: 0x278, offset: 0x278, size: 0x8, addend: 0x0, symName: _.str.22, symObjAddr: 0x47E20, symBinAddr: 0x100049180, symSize: 0x0 }
  - { offsetInCU: 0x289, offset: 0x289, size: 0x8, addend: 0x0, symName: _.str.23, symObjAddr: 0x47E40, symBinAddr: 0x1000491A0, symSize: 0x0 }
  - { offsetInCU: 0x29A, offset: 0x29A, size: 0x8, addend: 0x0, symName: _.str.24, symObjAddr: 0x47E60, symBinAddr: 0x1000491C0, symSize: 0x0 }
  - { offsetInCU: 0x2AB, offset: 0x2AB, size: 0x8, addend: 0x0, symName: _.str.25, symObjAddr: 0x47EC0, symBinAddr: 0x100049220, symSize: 0x0 }
  - { offsetInCU: 0x2C8, offset: 0x2C8, size: 0x8, addend: 0x0, symName: _.str.26, symObjAddr: 0x47F00, symBinAddr: 0x100049260, symSize: 0x0 }
  - { offsetInCU: 0x2D9, offset: 0x2D9, size: 0x8, addend: 0x0, symName: _.str.27, symObjAddr: 0x47F20, symBinAddr: 0x100049280, symSize: 0x0 }
  - { offsetInCU: 0x2EA, offset: 0x2EA, size: 0x8, addend: 0x0, symName: _.str.28, symObjAddr: 0x47F40, symBinAddr: 0x1000492A0, symSize: 0x0 }
  - { offsetInCU: 0x307, offset: 0x307, size: 0x8, addend: 0x0, symName: _.str.29, symObjAddr: 0x47F60, symBinAddr: 0x1000492C0, symSize: 0x0 }
  - { offsetInCU: 0x324, offset: 0x324, size: 0x8, addend: 0x0, symName: _.str.30, symObjAddr: 0x47FA0, symBinAddr: 0x100049300, symSize: 0x0 }
  - { offsetInCU: 0x335, offset: 0x335, size: 0x8, addend: 0x0, symName: _.str.31, symObjAddr: 0x47FC0, symBinAddr: 0x100049320, symSize: 0x0 }
  - { offsetInCU: 0x346, offset: 0x346, size: 0x8, addend: 0x0, symName: _.str.32, symObjAddr: 0x47FE0, symBinAddr: 0x100049340, symSize: 0x0 }
  - { offsetInCU: 0x363, offset: 0x363, size: 0x8, addend: 0x0, symName: _.str.33, symObjAddr: 0x48020, symBinAddr: 0x100049380, symSize: 0x0 }
  - { offsetInCU: 0x380, offset: 0x380, size: 0x8, addend: 0x0, symName: _.str.34, symObjAddr: 0x48080, symBinAddr: 0x1000493E0, symSize: 0x0 }
  - { offsetInCU: 0xA57D, offset: 0xA57D, size: 0x8, addend: 0x0, symName: __ZNSt3__124__put_character_sequenceB7v160006IcNS_11char_traitsIcEEEERNS_13basic_ostreamIT_T0_EES7_PKS4_m, symObjAddr: 0xC020, symBinAddr: 0x10000CC74, symSize: 0x74C }
  - { offsetInCU: 0xD07D, offset: 0xD07D, size: 0x8, addend: 0x0, symName: __ZNSt3__17advanceB7v160006INS_21__tree_const_iteratorINS_12__value_typeINS_12basic_stringIcNS_11char_traitsIcEENS_9allocatorIcEEEES8_EEPNS_11__tree_nodeIS9_PvEElEEllvEEvRT_T0_, symObjAddr: 0x3C7B4, symBinAddr: 0x10003D408, symSize: 0x50 }
  - { offsetInCU: 0xF183, offset: 0xF183, size: 0x8, addend: 0x0, symName: __ZNSt3__1lsB7v160006INS_11char_traitsIcEEEERNS_13basic_ostreamIcT_EES6_PKc, symObjAddr: 0x190, symBinAddr: 0x100000DE4, symSize: 0x48 }
  - { offsetInCU: 0x10001, offset: 0x10001, size: 0x8, addend: 0x0, symName: __ZNSt3__17getlineB7v160006IcNS_11char_traitsIcEENS_9allocatorIcEEEERNS_13basic_istreamIT_T0_EES9_RNS_12basic_stringIS6_S7_T1_EE, symObjAddr: 0x2F50, symBinAddr: 0x100003BA4, symSize: 0xD8 }
  - { offsetInCU: 0x1039C, offset: 0x1039C, size: 0x8, addend: 0x0, symName: __ZNSt3__1rsB7v160006IcNS_11char_traitsIcEENS_9allocatorIcEEEERNS_13basic_istreamIT_T0_EES9_RNS_12basic_stringIS6_S7_T1_EE, symObjAddr: 0x32D8, symBinAddr: 0x100003F2C, symSize: 0x994 }
  - { offsetInCU: 0x10475, offset: 0x10475, size: 0x8, addend: 0x0, symName: __ZNSt3__14endlB7v160006IcNS_11char_traitsIcEEEERNS_13basic_ostreamIT_T0_EES7_, symObjAddr: 0x4808, symBinAddr: 0x10000545C, symSize: 0xD4 }
  - { offsetInCU: 0x104FE, offset: 0x104FE, size: 0x8, addend: 0x0, symName: __ZNSt3__112__to_addressB7v160006IP8locationEEPT_S4_, symObjAddr: 0x7270, symBinAddr: 0x100007EC4, symSize: 0x14 }
  - { offsetInCU: 0x10533, offset: 0x10533, size: 0x8, addend: 0x0, symName: __ZNSt3__130__libcpp_is_constant_evaluatedB7v160006Ev, symObjAddr: 0x7314, symBinAddr: 0x100007F68, symSize: 0xC }
  - { offsetInCU: 0x10550, offset: 0x10550, size: 0x8, addend: 0x0, symName: __ZNSt3__119__libcpp_deallocateB7v160006EPvmm, symObjAddr: 0x7320, symBinAddr: 0x100007F74, symSize: 0x30 }
  - { offsetInCU: 0x10598, offset: 0x10598, size: 0x8, addend: 0x0, symName: __ZNSt3__127__do_deallocate_handle_sizeB7v160006IJEEEvPvmDpT_, symObjAddr: 0x7350, symBinAddr: 0x100007FA4, symSize: 0x28 }
  - { offsetInCU: 0x105D6, offset: 0x105D6, size: 0x8, addend: 0x0, symName: __ZNSt3__124__libcpp_operator_deleteB7v160006IJPvEEEvDpT_, symObjAddr: 0x7378, symBinAddr: 0x100007FCC, symSize: 0x24 }
  - { offsetInCU: 0x1060B, offset: 0x1060B, size: 0x8, addend: 0x0, symName: __ZNSt3__112__to_addressB7v160006IPNS_12basic_stringIcNS_11char_traitsIcEENS_9allocatorIcEEEEEEPT_S9_, symObjAddr: 0x8810, symBinAddr: 0x100009464, symSize: 0x14 }
  - { offsetInCU: 0x10640, offset: 0x10640, size: 0x8, addend: 0x0, symName: __ZNSt3__112__to_addressB7v160006IP6serverEEPT_S4_, symObjAddr: 0xA7AC, symBinAddr: 0x10000B400, symSize: 0x14 }
  - { offsetInCU: 0x10675, offset: 0x10675, size: 0x8, addend: 0x0, symName: __ZNSt3__1neB7v160006ERKNS_16__deque_iteratorI6serverPS1_RS1_PS2_lLl23EEES7_, symObjAddr: 0xB6C8, symBinAddr: 0x10000C31C, symSize: 0x34 }
  - { offsetInCU: 0x106B2, offset: 0x106B2, size: 0x8, addend: 0x0, symName: __ZNSt3__1eqB7v160006ERKNS_16__deque_iteratorI6serverPS1_RS1_PS2_lLl23EEES7_, symObjAddr: 0xBDA8, symBinAddr: 0x10000C9FC, symSize: 0xC0 }
  - { offsetInCU: 0x106EF, offset: 0x106EF, size: 0x8, addend: 0x0, symName: __ZNSt3__116__pad_and_outputB7v160006IcNS_11char_traitsIcEEEENS_19ostreambuf_iteratorIT_T0_EES6_PKS4_S8_S8_RNS_8ios_baseES4_, symObjAddr: 0xC848, symBinAddr: 0x10000D49C, symSize: 0x774 }
  - { offsetInCU: 0x107CC, offset: 0x107CC, size: 0x8, addend: 0x0, symName: __ZNSt3__119__debug_db_insert_cB7v160006INS_12basic_stringIcNS_11char_traitsIcEENS_9allocatorIcEEEEEEvPT_, symObjAddr: 0xD73C, symBinAddr: 0x10000E390, symSize: 0x10 }
  - { offsetInCU: 0x107FD, offset: 0x107FD, size: 0x8, addend: 0x0, symName: __ZNSt3__112__to_addressB7v160006IKcEEPT_S3_, symObjAddr: 0xD808, symBinAddr: 0x10000E45C, symSize: 0x14 }
  - { offsetInCU: 0x10865, offset: 0x10865, size: 0x8, addend: 0x0, symName: __ZNSt3__19use_facetB7v160006INS_5ctypeIcEEEERKT_RKNS_6localeE, symObjAddr: 0xDEC0, symBinAddr: 0x10000EB14, symSize: 0x2C }
  - { offsetInCU: 0x10C45, offset: 0x10C45, size: 0x8, addend: 0x0, symName: __ZNSt3__118__constexpr_strlenB7v160006EPKc, symObjAddr: 0xE044, symBinAddr: 0x10000EC98, symSize: 0x24 }
  - { offsetInCU: 0x10C71, offset: 0x10C71, size: 0x8, addend: 0x0, symName: __ZNSt3__13maxB7v160006ImEERKT_S3_S3_, symObjAddr: 0x11220, symBinAddr: 0x100011E74, symSize: 0x2C }
  - { offsetInCU: 0x1113D, offset: 0x1113D, size: 0x8, addend: 0x0, symName: __ZNSt3__14swapB7v160006IPPNS_12basic_stringIcNS_11char_traitsIcEENS_9allocatorIcEEEEEEvRT_SA_, symObjAddr: 0x128F0, symBinAddr: 0x100013544, symSize: 0x134 }
  - { offsetInCU: 0x1118E, offset: 0x1118E, size: 0x8, addend: 0x0, symName: __ZNSt3__14moveB7v160006IPPNS_12basic_stringIcNS_11char_traitsIcEENS_9allocatorIcEEEES8_EET0_T_SA_S9_, symObjAddr: 0x12B6C, symBinAddr: 0x1000137C0, symSize: 0x254 }
  - { offsetInCU: 0x11207, offset: 0x11207, size: 0x8, addend: 0x0, symName: __ZNSt3__16__moveB7v160006INS_17_ClassicAlgPolicyEPPNS_12basic_stringIcNS_11char_traitsIcEENS_9allocatorIcEEEES9_S9_EENS_4pairIT0_T2_EESB_T1_SC_, symObjAddr: 0x1343C, symBinAddr: 0x100014090, symSize: 0x22C }
  - { offsetInCU: 0x11276, offset: 0x11276, size: 0x8, addend: 0x0, symName: __ZNSt3__123__dispatch_copy_or_moveB7v160006INS_17_ClassicAlgPolicyENS_11__move_loopIS1_EENS_14__move_trivialEPPNS_12basic_stringIcNS_11char_traitsIcEENS_9allocatorIcEEEESC_SC_EENS_4pairIT2_T4_EESE_T3_SF_, symObjAddr: 0x13668, symBinAddr: 0x1000142BC, symSize: 0x23C }
  - { offsetInCU: 0x112F7, offset: 0x112F7, size: 0x8, addend: 0x0, symName: __ZNSt3__121__unwrap_and_dispatchB7v160006INS_10__overloadINS_11__move_loopINS_17_ClassicAlgPolicyEEENS_14__move_trivialEEEPPNS_12basic_stringIcNS_11char_traitsIcEENS_9allocatorIcEEEESE_SE_Li0EEENS_4pairIT0_T2_EESG_T1_SH_, symObjAddr: 0x138A4, symBinAddr: 0x1000144F8, symSize: 0x5A4 }
  - { offsetInCU: 0x11390, offset: 0x11390, size: 0x8, addend: 0x0, symName: __ZNSt3__114__unwrap_rangeB7v160006IPPNS_12basic_stringIcNS_11char_traitsIcEENS_9allocatorIcEEEES8_EENS_4pairIT0_SA_EET_SC_, symObjAddr: 0x13E48, symBinAddr: 0x100014A9C, symSize: 0x350 }
  - { offsetInCU: 0x11549, offset: 0x11549, size: 0x8, addend: 0x0, symName: __ZNSt3__113__unwrap_iterB7v160006IPPNS_12basic_stringIcNS_11char_traitsIcEENS_9allocatorIcEEEENS_18__unwrap_iter_implIS8_Lb1EEELi0EEEDTclsrT0_8__unwrapclsr3stdE7declvalIT_EEEESC_, symObjAddr: 0x143C8, symBinAddr: 0x10001501C, symSize: 0x24 }
  - { offsetInCU: 0x1158D, offset: 0x1158D, size: 0x8, addend: 0x0, symName: __ZNSt3__19make_pairB7v160006IPPNS_12basic_stringIcNS_11char_traitsIcEENS_9allocatorIcEEEES8_EENS_4pairINS_18__unwrap_ref_decayIT_E4typeENSA_IT0_E4typeEEEOSB_OSE_, symObjAddr: 0x143EC, symBinAddr: 0x100015040, symSize: 0x20C }
  - { offsetInCU: 0x115DE, offset: 0x115DE, size: 0x8, addend: 0x0, symName: __ZNSt3__114__rewrap_rangeB7v160006IPPNS_12basic_stringIcNS_11char_traitsIcEENS_9allocatorIcEEEES8_EET_S9_T0_, symObjAddr: 0x145F8, symBinAddr: 0x10001524C, symSize: 0x2C }
  - { offsetInCU: 0x1162A, offset: 0x1162A, size: 0x8, addend: 0x0, symName: __ZNSt3__113__rewrap_iterB7v160006IPPNS_12basic_stringIcNS_11char_traitsIcEENS_9allocatorIcEEEES8_NS_18__unwrap_iter_implIS8_Lb1EEEEET_SB_T0_, symObjAddr: 0x14624, symBinAddr: 0x100015278, symSize: 0x5C }
  - { offsetInCU: 0x1167F, offset: 0x1167F, size: 0x8, addend: 0x0, symName: __ZNSt3__119__copy_trivial_implB7v160006IPNS_12basic_stringIcNS_11char_traitsIcEENS_9allocatorIcEEEES7_EENS_4pairIPT_PT0_EESA_SA_SC_, symObjAddr: 0x14680, symBinAddr: 0x1000152D4, symSize: 0x3B8 }
  - { offsetInCU: 0x116EE, offset: 0x116EE, size: 0x8, addend: 0x0, symName: __ZNSt3__19make_pairB7v160006IRPPNS_12basic_stringIcNS_11char_traitsIcEENS_9allocatorIcEEEES8_EENS_4pairINS_18__unwrap_ref_decayIT_E4typeENSB_IT0_E4typeEEEOSC_OSF_, symObjAddr: 0x14A38, symBinAddr: 0x10001568C, symSize: 0x20C }
  - { offsetInCU: 0x11792, offset: 0x11792, size: 0x8, addend: 0x0, symName: __ZNSt3__18distanceB7v160006INS_13move_iteratorIPPNS_12basic_stringIcNS_11char_traitsIcEENS_9allocatorIcEEEEEEEENS_15iterator_traitsIT_E15difference_typeESC_SC_, symObjAddr: 0x14E2C, symBinAddr: 0x100015A80, symSize: 0x350 }
  - { offsetInCU: 0x117DD, offset: 0x117DD, size: 0x8, addend: 0x0, symName: __ZNSt3__110__distanceB7v160006INS_13move_iteratorIPPNS_12basic_stringIcNS_11char_traitsIcEENS_9allocatorIcEEEEEEEENS_15iterator_traitsIT_E15difference_typeESC_SC_NS_26random_access_iterator_tagE, symObjAddr: 0x15308, symBinAddr: 0x100015F5C, symSize: 0x274 }
  - { offsetInCU: 0x11833, offset: 0x11833, size: 0x8, addend: 0x0, symName: __ZNSt3__1miB7v160006IPPNS_12basic_stringIcNS_11char_traitsIcEENS_9allocatorIcEEEES8_EENS_13move_iteratorIT_E15difference_typeERKSB_RKNS9_IT0_EE, symObjAddr: 0x1557C, symBinAddr: 0x1000161D0, symSize: 0x48 }
  - { offsetInCU: 0x11882, offset: 0x11882, size: 0x8, addend: 0x0, symName: __ZNSt3__117__libcpp_allocateB7v160006Emm, symObjAddr: 0x15BD4, symBinAddr: 0x100016828, symSize: 0x28 }
  - { offsetInCU: 0x118BF, offset: 0x118BF, size: 0x8, addend: 0x0, symName: __ZNSt3__121__libcpp_operator_newB7v160006IJmEEEPvDpT_, symObjAddr: 0x15C14, symBinAddr: 0x100016868, symSize: 0x24 }
  - { offsetInCU: 0x118F8, offset: 0x118F8, size: 0x8, addend: 0x0, symName: __ZNSt3__113move_backwardB7v160006IPPNS_12basic_stringIcNS_11char_traitsIcEENS_9allocatorIcEEEES8_EET0_T_SA_S9_, symObjAddr: 0x15C38, symBinAddr: 0x10001688C, symSize: 0x254 }
  - { offsetInCU: 0x11955, offset: 0x11955, size: 0x8, addend: 0x0, symName: __ZNSt3__115__move_backwardB7v160006INS_17_ClassicAlgPolicyEPPNS_12basic_stringIcNS_11char_traitsIcEENS_9allocatorIcEEEES9_S9_EENS_4pairIT0_T2_EESB_T1_SC_, symObjAddr: 0x15E8C, symBinAddr: 0x100016AE0, symSize: 0x22C }
  - { offsetInCU: 0x119C4, offset: 0x119C4, size: 0x8, addend: 0x0, symName: __ZNSt3__123__dispatch_copy_or_moveB7v160006INS_17_ClassicAlgPolicyENS_20__move_backward_loopIS1_EENS_23__move_backward_trivialEPPNS_12basic_stringIcNS_11char_traitsIcEENS_9allocatorIcEEEESC_SC_EENS_4pairIT2_T4_EESE_T3_SF_, symObjAddr: 0x160B8, symBinAddr: 0x100016D0C, symSize: 0x23C }
  - { offsetInCU: 0x11A45, offset: 0x11A45, size: 0x8, addend: 0x0, symName: __ZNSt3__121__unwrap_and_dispatchB7v160006INS_10__overloadINS_20__move_backward_loopINS_17_ClassicAlgPolicyEEENS_23__move_backward_trivialEEEPPNS_12basic_stringIcNS_11char_traitsIcEENS_9allocatorIcEEEESE_SE_Li0EEENS_4pairIT0_T2_EESG_T1_SH_, symObjAddr: 0x162F4, symBinAddr: 0x100016F48, symSize: 0x5A4 }
  - { offsetInCU: 0x11B9C, offset: 0x11B9C, size: 0x8, addend: 0x0, symName: __ZNSt3__128__copy_backward_trivial_implB7v160006IPNS_12basic_stringIcNS_11char_traitsIcEENS_9allocatorIcEEEES7_EENS_4pairIPT_PT0_EESA_SA_SC_, symObjAddr: 0x16AC8, symBinAddr: 0x10001771C, symSize: 0x3E0 }
  - { offsetInCU: 0x11C0E, offset: 0x11C0E, size: 0x8, addend: 0x0, symName: __ZNSt3__19make_pairB7v160006IRPPNS_12basic_stringIcNS_11char_traitsIcEENS_9allocatorIcEEEES9_EENS_4pairINS_18__unwrap_ref_decayIT_E4typeENSB_IT0_E4typeEEEOSC_OSF_, symObjAddr: 0x16EA8, symBinAddr: 0x100017AFC, symSize: 0x20C }
  - { offsetInCU: 0x11C5F, offset: 0x11C5F, size: 0x8, addend: 0x0, symName: __ZNSt3__13maxB7v160006ImNS_6__lessImmEEEERKT_S5_S5_T0_, symObjAddr: 0x170B4, symBinAddr: 0x100017D08, symSize: 0x1E8 }
  - { offsetInCU: 0x11CFA, offset: 0x11CFA, size: 0x8, addend: 0x0, symName: __ZNSt3__119__allocate_at_leastB7v160006INS_9allocatorIPNS_12basic_stringIcNS_11char_traitsIcEENS1_IcEEEEEEEENS_19__allocation_resultINS_16allocator_traitsIT_E7pointerEEERSB_m, symObjAddr: 0x178B4, symBinAddr: 0x100018508, symSize: 0x28C }
  - { offsetInCU: 0x11D3F, offset: 0x11D3F, size: 0x8, addend: 0x0, symName: __ZNSt3__17getlineB7v160006IcNS_11char_traitsIcEENS_9allocatorIcEEEERNS_13basic_istreamIT_T0_EES9_RNS_12basic_stringIS6_S7_T1_EES6_, symObjAddr: 0x19D28, symBinAddr: 0x10001A97C, symSize: 0x688 }
  - { offsetInCU: 0x1269C, offset: 0x1269C, size: 0x8, addend: 0x0, symName: __ZNSt3__14swapB7v160006IPP8locationEEvRT_S5_, symObjAddr: 0x1FF20, symBinAddr: 0x100020B74, symSize: 0x134 }
  - { offsetInCU: 0x126ED, offset: 0x126ED, size: 0x8, addend: 0x0, symName: __ZNSt3__14moveB7v160006IPP8locationS3_EET0_T_S5_S4_, symObjAddr: 0x2019C, symBinAddr: 0x100020DF0, symSize: 0x254 }
  - { offsetInCU: 0x1274A, offset: 0x1274A, size: 0x8, addend: 0x0, symName: __ZNSt3__16__moveB7v160006INS_17_ClassicAlgPolicyEPP8locationS4_S4_EENS_4pairIT0_T2_EES6_T1_S7_, symObjAddr: 0x20A6C, symBinAddr: 0x1000216C0, symSize: 0x22C }
  - { offsetInCU: 0x127B9, offset: 0x127B9, size: 0x8, addend: 0x0, symName: __ZNSt3__123__dispatch_copy_or_moveB7v160006INS_17_ClassicAlgPolicyENS_11__move_loopIS1_EENS_14__move_trivialEPP8locationS7_S7_EENS_4pairIT2_T4_EES9_T3_SA_, symObjAddr: 0x20C98, symBinAddr: 0x1000218EC, symSize: 0x23C }
  - { offsetInCU: 0x1283A, offset: 0x1283A, size: 0x8, addend: 0x0, symName: __ZNSt3__121__unwrap_and_dispatchB7v160006INS_10__overloadINS_11__move_loopINS_17_ClassicAlgPolicyEEENS_14__move_trivialEEEPP8locationS9_S9_Li0EEENS_4pairIT0_T2_EESB_T1_SC_, symObjAddr: 0x20ED4, symBinAddr: 0x100021B28, symSize: 0x5A4 }
  - { offsetInCU: 0x128D3, offset: 0x128D3, size: 0x8, addend: 0x0, symName: __ZNSt3__114__unwrap_rangeB7v160006IPP8locationS3_EENS_4pairIT0_S5_EET_S7_, symObjAddr: 0x21478, symBinAddr: 0x1000220CC, symSize: 0x350 }
  - { offsetInCU: 0x129CE, offset: 0x129CE, size: 0x8, addend: 0x0, symName: __ZNSt3__113__unwrap_iterB7v160006IPP8locationNS_18__unwrap_iter_implIS3_Lb1EEELi0EEEDTclsrT0_8__unwrapclsr3stdE7declvalIT_EEEES7_, symObjAddr: 0x219F8, symBinAddr: 0x10002264C, symSize: 0x24 }
  - { offsetInCU: 0x12A12, offset: 0x12A12, size: 0x8, addend: 0x0, symName: __ZNSt3__19make_pairB7v160006IPP8locationS3_EENS_4pairINS_18__unwrap_ref_decayIT_E4typeENS5_IT0_E4typeEEEOS6_OS9_, symObjAddr: 0x21A1C, symBinAddr: 0x100022670, symSize: 0x20C }
  - { offsetInCU: 0x12A63, offset: 0x12A63, size: 0x8, addend: 0x0, symName: __ZNSt3__114__rewrap_rangeB7v160006IPP8locationS3_EET_S4_T0_, symObjAddr: 0x21C28, symBinAddr: 0x10002287C, symSize: 0x2C }
  - { offsetInCU: 0x12AAF, offset: 0x12AAF, size: 0x8, addend: 0x0, symName: __ZNSt3__113__rewrap_iterB7v160006IPP8locationS3_NS_18__unwrap_iter_implIS3_Lb1EEEEET_S6_T0_, symObjAddr: 0x21C54, symBinAddr: 0x1000228A8, symSize: 0x5C }
  - { offsetInCU: 0x12B04, offset: 0x12B04, size: 0x8, addend: 0x0, symName: __ZNSt3__119__copy_trivial_implB7v160006IP8locationS2_EENS_4pairIPT_PT0_EES5_S5_S7_, symObjAddr: 0x21CB0, symBinAddr: 0x100022904, symSize: 0x3B8 }
  - { offsetInCU: 0x12B73, offset: 0x12B73, size: 0x8, addend: 0x0, symName: __ZNSt3__19make_pairB7v160006IRPP8locationS3_EENS_4pairINS_18__unwrap_ref_decayIT_E4typeENS6_IT0_E4typeEEEOS7_OSA_, symObjAddr: 0x22068, symBinAddr: 0x100022CBC, symSize: 0x20C }
  - { offsetInCU: 0x12C17, offset: 0x12C17, size: 0x8, addend: 0x0, symName: __ZNSt3__18distanceB7v160006INS_13move_iteratorIPP8locationEEEENS_15iterator_traitsIT_E15difference_typeES7_S7_, symObjAddr: 0x2245C, symBinAddr: 0x1000230B0, symSize: 0x350 }
  - { offsetInCU: 0x12C62, offset: 0x12C62, size: 0x8, addend: 0x0, symName: __ZNSt3__110__distanceB7v160006INS_13move_iteratorIPP8locationEEEENS_15iterator_traitsIT_E15difference_typeES7_S7_NS_26random_access_iterator_tagE, symObjAddr: 0x22938, symBinAddr: 0x10002358C, symSize: 0x274 }
  - { offsetInCU: 0x12CB8, offset: 0x12CB8, size: 0x8, addend: 0x0, symName: __ZNSt3__1miB7v160006IPP8locationS3_EENS_13move_iteratorIT_E15difference_typeERKS6_RKNS4_IT0_EE, symObjAddr: 0x22BAC, symBinAddr: 0x100023800, symSize: 0x48 }
  - { offsetInCU: 0x12D07, offset: 0x12D07, size: 0x8, addend: 0x0, symName: __ZNSt3__113move_backwardB7v160006IPP8locationS3_EET0_T_S5_S4_, symObjAddr: 0x231EC, symBinAddr: 0x100023E40, symSize: 0x254 }
  - { offsetInCU: 0x12D64, offset: 0x12D64, size: 0x8, addend: 0x0, symName: __ZNSt3__115__move_backwardB7v160006INS_17_ClassicAlgPolicyEPP8locationS4_S4_EENS_4pairIT0_T2_EES6_T1_S7_, symObjAddr: 0x23440, symBinAddr: 0x100024094, symSize: 0x22C }
  - { offsetInCU: 0x12DD3, offset: 0x12DD3, size: 0x8, addend: 0x0, symName: __ZNSt3__123__dispatch_copy_or_moveB7v160006INS_17_ClassicAlgPolicyENS_20__move_backward_loopIS1_EENS_23__move_backward_trivialEPP8locationS7_S7_EENS_4pairIT2_T4_EES9_T3_SA_, symObjAddr: 0x2366C, symBinAddr: 0x1000242C0, symSize: 0x23C }
  - { offsetInCU: 0x12E54, offset: 0x12E54, size: 0x8, addend: 0x0, symName: __ZNSt3__121__unwrap_and_dispatchB7v160006INS_10__overloadINS_20__move_backward_loopINS_17_ClassicAlgPolicyEEENS_23__move_backward_trivialEEEPP8locationS9_S9_Li0EEENS_4pairIT0_T2_EESB_T1_SC_, symObjAddr: 0x238A8, symBinAddr: 0x1000244FC, symSize: 0x5A4 }
  - { offsetInCU: 0x12EED, offset: 0x12EED, size: 0x8, addend: 0x0, symName: __ZNSt3__128__copy_backward_trivial_implB7v160006IP8locationS2_EENS_4pairIPT_PT0_EES5_S5_S7_, symObjAddr: 0x2407C, symBinAddr: 0x100024CD0, symSize: 0x3E0 }
  - { offsetInCU: 0x12F5F, offset: 0x12F5F, size: 0x8, addend: 0x0, symName: __ZNSt3__19make_pairB7v160006IRPP8locationS4_EENS_4pairINS_18__unwrap_ref_decayIT_E4typeENS6_IT0_E4typeEEEOS7_OSA_, symObjAddr: 0x2445C, symBinAddr: 0x1000250B0, symSize: 0x20C }
  - { offsetInCU: 0x12FB0, offset: 0x12FB0, size: 0x8, addend: 0x0, symName: __ZNSt3__119__allocate_at_leastB7v160006INS_9allocatorIP8locationEEEENS_19__allocation_resultINS_16allocator_traitsIT_E7pointerEEERS7_m, symObjAddr: 0x24BC4, symBinAddr: 0x100025818, symSize: 0x28C }
  - { offsetInCU: 0x12FF5, offset: 0x12FF5, size: 0x8, addend: 0x0, symName: __ZNSt3__18distanceB7v160006INS_16__deque_iteratorINS_12basic_stringIcNS_11char_traitsIcEENS_9allocatorIcEEEEPKS7_RS8_PKS9_lLl170EEEEENS_15iterator_traitsIT_E15difference_typeESF_SF_, symObjAddr: 0x27790, symBinAddr: 0x1000283E4, symSize: 0x35C }
  - { offsetInCU: 0x13040, offset: 0x13040, size: 0x8, addend: 0x0, symName: __ZNSt3__1neB7v160006ERKNS_5dequeINS_12basic_stringIcNS_11char_traitsIcEENS_9allocatorIcEEEENS4_IS6_EEE13__deque_rangeESB_, symObjAddr: 0x29534, symBinAddr: 0x10002A188, symSize: 0x34 }
  - { offsetInCU: 0x1307D, offset: 0x1307D, size: 0x8, addend: 0x0, symName: __ZNSt3__112__to_addressB7v160006INS_12basic_stringIcNS_11char_traitsIcEENS_9allocatorIcEEEEEEPT_S8_, symObjAddr: 0x29970, symBinAddr: 0x10002A5C4, symSize: 0x14 }
  - { offsetInCU: 0x130B2, offset: 0x130B2, size: 0x8, addend: 0x0, symName: __ZNSt3__110__distanceB7v160006INS_16__deque_iteratorINS_12basic_stringIcNS_11char_traitsIcEENS_9allocatorIcEEEEPKS7_RS8_PKS9_lLl170EEEEENS_15iterator_traitsIT_E15difference_typeESF_SF_NS_26random_access_iterator_tagE, symObjAddr: 0x29DCC, symBinAddr: 0x10002AA20, symSize: 0x278 }
  - { offsetInCU: 0x13108, offset: 0x13108, size: 0x8, addend: 0x0, symName: __ZNSt3__1miB7v160006ERKNS_16__deque_iteratorINS_12basic_stringIcNS_11char_traitsIcEENS_9allocatorIcEEEEPKS6_RS7_PKS8_lLl170EEESE_, symObjAddr: 0x2A044, symBinAddr: 0x10002AC98, symSize: 0x294 }
  - { offsetInCU: 0x13145, offset: 0x13145, size: 0x8, addend: 0x0, symName: __ZNSt3__1neB7v160006ERKNS_16__deque_iteratorINS_12basic_stringIcNS_11char_traitsIcEENS_9allocatorIcEEEEPKS6_RS7_PKS8_lLl170EEESE_, symObjAddr: 0x2A2D8, symBinAddr: 0x10002AF2C, symSize: 0x34 }
  - { offsetInCU: 0x13182, offset: 0x13182, size: 0x8, addend: 0x0, symName: __ZNSt3__1eqB7v160006ERKNS_16__deque_iteratorINS_12basic_stringIcNS_11char_traitsIcEENS_9allocatorIcEEEEPKS6_RS7_PKS8_lLl170EEESE_, symObjAddr: 0x2A30C, symBinAddr: 0x10002AF60, symSize: 0xC0 }
  - { offsetInCU: 0x131BF, offset: 0x131BF, size: 0x8, addend: 0x0, symName: __ZNSt3__13minB7v160006ImEERKT_S3_S3_, symObjAddr: 0x2A40C, symBinAddr: 0x10002B060, symSize: 0x2C }
  - { offsetInCU: 0x13202, offset: 0x13202, size: 0x8, addend: 0x0, symName: __ZNSt3__13minB7v160006ImNS_6__lessImmEEEERKT_S5_S5_T0_, symObjAddr: 0x2AF50, symBinAddr: 0x10002BBA4, symSize: 0x1E8 }
  - { offsetInCU: 0x13262, offset: 0x13262, size: 0x8, addend: 0x0, symName: __ZNSt3__1eqB7v160006ERKNS_5dequeINS_12basic_stringIcNS_11char_traitsIcEENS_9allocatorIcEEEENS4_IS6_EEE13__deque_rangeESB_, symObjAddr: 0x2B77C, symBinAddr: 0x10002C3D0, symSize: 0x30 }
  - { offsetInCU: 0x1329F, offset: 0x1329F, size: 0x8, addend: 0x0, symName: __ZNSt3__1eqB7v160006ERKNS_16__deque_iteratorINS_12basic_stringIcNS_11char_traitsIcEENS_9allocatorIcEEEEPS6_RS6_PS7_lLl170EEESC_, symObjAddr: 0x2B7AC, symBinAddr: 0x10002C400, symSize: 0xC0 }
  - { offsetInCU: 0x132DC, offset: 0x132DC, size: 0x8, addend: 0x0, symName: __ZNSt3__1neB7v160006ERKNS_16__deque_iteratorINS_12basic_stringIcNS_11char_traitsIcEENS_9allocatorIcEEEEPS6_RS6_PS7_lLl170EEESC_, symObjAddr: 0x2C2FC, symBinAddr: 0x10002CF50, symSize: 0x34 }
  - { offsetInCU: 0x13319, offset: 0x13319, size: 0x8, addend: 0x0, symName: __ZNSt3__125__debug_db_invalidate_allB7v160006INS_12basic_stringIcNS_11char_traitsIcEENS_9allocatorIcEEEEEEvPT_, symObjAddr: 0x2C57C, symBinAddr: 0x10002D1D0, symSize: 0x10 }
  - { offsetInCU: 0x13806, offset: 0x13806, size: 0x8, addend: 0x0, symName: __ZNSt3__14swapB7v160006IPP6serverEEvRT_S5_, symObjAddr: 0x30AB4, symBinAddr: 0x100031708, symSize: 0x134 }
  - { offsetInCU: 0x13857, offset: 0x13857, size: 0x8, addend: 0x0, symName: __ZNSt3__14moveB7v160006IPP6serverS3_EET0_T_S5_S4_, symObjAddr: 0x30C90, symBinAddr: 0x1000318E4, symSize: 0x254 }
  - { offsetInCU: 0x138B4, offset: 0x138B4, size: 0x8, addend: 0x0, symName: __ZNSt3__16__moveB7v160006INS_17_ClassicAlgPolicyEPP6serverS4_S4_EENS_4pairIT0_T2_EES6_T1_S7_, symObjAddr: 0x31560, symBinAddr: 0x1000321B4, symSize: 0x22C }
  - { offsetInCU: 0x13923, offset: 0x13923, size: 0x8, addend: 0x0, symName: __ZNSt3__123__dispatch_copy_or_moveB7v160006INS_17_ClassicAlgPolicyENS_11__move_loopIS1_EENS_14__move_trivialEPP6serverS7_S7_EENS_4pairIT2_T4_EES9_T3_SA_, symObjAddr: 0x3178C, symBinAddr: 0x1000323E0, symSize: 0x23C }
  - { offsetInCU: 0x139A4, offset: 0x139A4, size: 0x8, addend: 0x0, symName: __ZNSt3__121__unwrap_and_dispatchB7v160006INS_10__overloadINS_11__move_loopINS_17_ClassicAlgPolicyEEENS_14__move_trivialEEEPP6serverS9_S9_Li0EEENS_4pairIT0_T2_EESB_T1_SC_, symObjAddr: 0x319C8, symBinAddr: 0x10003261C, symSize: 0x5A4 }
  - { offsetInCU: 0x13A3D, offset: 0x13A3D, size: 0x8, addend: 0x0, symName: __ZNSt3__114__unwrap_rangeB7v160006IPP6serverS3_EENS_4pairIT0_S5_EET_S7_, symObjAddr: 0x31F6C, symBinAddr: 0x100032BC0, symSize: 0x350 }
  - { offsetInCU: 0x13B38, offset: 0x13B38, size: 0x8, addend: 0x0, symName: __ZNSt3__113__unwrap_iterB7v160006IPP6serverNS_18__unwrap_iter_implIS3_Lb1EEELi0EEEDTclsrT0_8__unwrapclsr3stdE7declvalIT_EEEES7_, symObjAddr: 0x324EC, symBinAddr: 0x100033140, symSize: 0x24 }
  - { offsetInCU: 0x13B7C, offset: 0x13B7C, size: 0x8, addend: 0x0, symName: __ZNSt3__19make_pairB7v160006IPP6serverS3_EENS_4pairINS_18__unwrap_ref_decayIT_E4typeENS5_IT0_E4typeEEEOS6_OS9_, symObjAddr: 0x32510, symBinAddr: 0x100033164, symSize: 0x20C }
  - { offsetInCU: 0x13BCD, offset: 0x13BCD, size: 0x8, addend: 0x0, symName: __ZNSt3__114__rewrap_rangeB7v160006IPP6serverS3_EET_S4_T0_, symObjAddr: 0x3271C, symBinAddr: 0x100033370, symSize: 0x2C }
  - { offsetInCU: 0x13C19, offset: 0x13C19, size: 0x8, addend: 0x0, symName: __ZNSt3__113__rewrap_iterB7v160006IPP6serverS3_NS_18__unwrap_iter_implIS3_Lb1EEEEET_S6_T0_, symObjAddr: 0x32748, symBinAddr: 0x10003339C, symSize: 0x5C }
  - { offsetInCU: 0x13C6E, offset: 0x13C6E, size: 0x8, addend: 0x0, symName: __ZNSt3__119__copy_trivial_implB7v160006IP6serverS2_EENS_4pairIPT_PT0_EES5_S5_S7_, symObjAddr: 0x327A4, symBinAddr: 0x1000333F8, symSize: 0x3B8 }
  - { offsetInCU: 0x13CDD, offset: 0x13CDD, size: 0x8, addend: 0x0, symName: __ZNSt3__19make_pairB7v160006IRPP6serverS3_EENS_4pairINS_18__unwrap_ref_decayIT_E4typeENS6_IT0_E4typeEEEOS7_OSA_, symObjAddr: 0x32B5C, symBinAddr: 0x1000337B0, symSize: 0x20C }
  - { offsetInCU: 0x13D81, offset: 0x13D81, size: 0x8, addend: 0x0, symName: __ZNSt3__18distanceB7v160006INS_13move_iteratorIPP6serverEEEENS_15iterator_traitsIT_E15difference_typeES7_S7_, symObjAddr: 0x32F50, symBinAddr: 0x100033BA4, symSize: 0x350 }
  - { offsetInCU: 0x13DCC, offset: 0x13DCC, size: 0x8, addend: 0x0, symName: __ZNSt3__110__distanceB7v160006INS_13move_iteratorIPP6serverEEEENS_15iterator_traitsIT_E15difference_typeES7_S7_NS_26random_access_iterator_tagE, symObjAddr: 0x3342C, symBinAddr: 0x100034080, symSize: 0x274 }
  - { offsetInCU: 0x13E22, offset: 0x13E22, size: 0x8, addend: 0x0, symName: __ZNSt3__1miB7v160006IPP6serverS3_EENS_13move_iteratorIT_E15difference_typeERKS6_RKNS4_IT0_EE, symObjAddr: 0x336A0, symBinAddr: 0x1000342F4, symSize: 0x48 }
  - { offsetInCU: 0x13E71, offset: 0x13E71, size: 0x8, addend: 0x0, symName: __ZNSt3__113move_backwardB7v160006IPP6serverS3_EET0_T_S5_S4_, symObjAddr: 0x33CE0, symBinAddr: 0x100034934, symSize: 0x254 }
  - { offsetInCU: 0x13ECE, offset: 0x13ECE, size: 0x8, addend: 0x0, symName: __ZNSt3__115__move_backwardB7v160006INS_17_ClassicAlgPolicyEPP6serverS4_S4_EENS_4pairIT0_T2_EES6_T1_S7_, symObjAddr: 0x33F34, symBinAddr: 0x100034B88, symSize: 0x22C }
  - { offsetInCU: 0x13F3D, offset: 0x13F3D, size: 0x8, addend: 0x0, symName: __ZNSt3__123__dispatch_copy_or_moveB7v160006INS_17_ClassicAlgPolicyENS_20__move_backward_loopIS1_EENS_23__move_backward_trivialEPP6serverS7_S7_EENS_4pairIT2_T4_EES9_T3_SA_, symObjAddr: 0x34160, symBinAddr: 0x100034DB4, symSize: 0x23C }
  - { offsetInCU: 0x13FBE, offset: 0x13FBE, size: 0x8, addend: 0x0, symName: __ZNSt3__121__unwrap_and_dispatchB7v160006INS_10__overloadINS_20__move_backward_loopINS_17_ClassicAlgPolicyEEENS_23__move_backward_trivialEEEPP6serverS9_S9_Li0EEENS_4pairIT0_T2_EESB_T1_SC_, symObjAddr: 0x3439C, symBinAddr: 0x100034FF0, symSize: 0x5A4 }
  - { offsetInCU: 0x14057, offset: 0x14057, size: 0x8, addend: 0x0, symName: __ZNSt3__128__copy_backward_trivial_implB7v160006IP6serverS2_EENS_4pairIPT_PT0_EES5_S5_S7_, symObjAddr: 0x34B70, symBinAddr: 0x1000357C4, symSize: 0x3E0 }
  - { offsetInCU: 0x140C9, offset: 0x140C9, size: 0x8, addend: 0x0, symName: __ZNSt3__19make_pairB7v160006IRPP6serverS4_EENS_4pairINS_18__unwrap_ref_decayIT_E4typeENS6_IT0_E4typeEEEOS7_OSA_, symObjAddr: 0x34F50, symBinAddr: 0x100035BA4, symSize: 0x20C }
  - { offsetInCU: 0x1411A, offset: 0x1411A, size: 0x8, addend: 0x0, symName: __ZNSt3__119__allocate_at_leastB7v160006INS_9allocatorIP6serverEEEENS_19__allocation_resultINS_16allocator_traitsIT_E7pointerEEERS7_m, symObjAddr: 0x356B8, symBinAddr: 0x10003630C, symSize: 0x28C }
  - { offsetInCU: 0x1415F, offset: 0x1415F, size: 0x8, addend: 0x0, symName: __ZNSt3__1neB7v160006ERKNS_20__map_const_iteratorINS_21__tree_const_iteratorINS_12__value_typeINS_12basic_stringIcNS_11char_traitsIcEENS_9allocatorIcEEEES8_EEPNS_11__tree_nodeIS9_PvEElEEEESH_, symObjAddr: 0x37D68, symBinAddr: 0x1000389BC, symSize: 0x30 }
  - { offsetInCU: 0x1419C, offset: 0x1419C, size: 0x8, addend: 0x0, symName: __ZNSt3__1neB7v160006ERKNS_21__tree_const_iteratorINS_12__value_typeINS_12basic_stringIcNS_11char_traitsIcEENS_9allocatorIcEEEES7_EEPNS_11__tree_nodeIS8_PvEElEESF_, symObjAddr: 0x383C0, symBinAddr: 0x100039014, symSize: 0x34 }
  - { offsetInCU: 0x141D9, offset: 0x141D9, size: 0x8, addend: 0x0, symName: __ZNSt3__1eqB7v160006ERKNS_21__tree_const_iteratorINS_12__value_typeINS_12basic_stringIcNS_11char_traitsIcEENS_9allocatorIcEEEES7_EEPNS_11__tree_nodeIS8_PvEElEESF_, symObjAddr: 0x383F4, symBinAddr: 0x100039048, symSize: 0xB8 }
  - { offsetInCU: 0x1423A, offset: 0x1423A, size: 0x8, addend: 0x0, symName: __ZNSt3__14nextB7v160006INS_21__tree_const_iteratorINS_12__value_typeINS_12basic_stringIcNS_11char_traitsIcEENS_9allocatorIcEEEES8_EEPNS_11__tree_nodeIS9_PvEElEEEENS_9enable_ifIXsr25__is_cpp17_input_iteratorIT_EE5valueESG_E4typeESG_NS_15iterator_traitsISG_E15difference_typeE, symObjAddr: 0x3B1A8, symBinAddr: 0x10003BDFC, symSize: 0x2A4 }
  - { offsetInCU: 0x14282, offset: 0x14282, size: 0x8, addend: 0x0, symName: __ZNSt3__1ltB7v160006IcNS_11char_traitsIcEENS_9allocatorIcEEEEbRKNS_12basic_stringIT_T0_T1_EESB_, symObjAddr: 0x3B840, symBinAddr: 0x10003C494, symSize: 0x38 }
  - { offsetInCU: 0x142FE, offset: 0x142FE, size: 0x8, addend: 0x0, symName: __ZNSt3__118__constexpr_memcmpB7v160006IcEEiPKT_S3_m, symObjAddr: 0x3C344, symBinAddr: 0x10003CF98, symSize: 0x34 }
  - { offsetInCU: 0x1434F, offset: 0x1434F, size: 0x8, addend: 0x0, symName: __ZNSt3__116__tree_prev_iterB7v160006IPNS_16__tree_node_baseIPvEEPNS_15__tree_end_nodeIS4_EEEET_T0_, symObjAddr: 0x3C470, symBinAddr: 0x10003D0C4, symSize: 0x138 }
  - { offsetInCU: 0x1439B, offset: 0x1439B, size: 0x8, addend: 0x0, symName: __ZNSt3__110__tree_maxB7v160006IPNS_16__tree_node_baseIPvEEEET_S5_, symObjAddr: 0x3C5A8, symBinAddr: 0x10003D1FC, symSize: 0xCC }
  - { offsetInCU: 0x143D0, offset: 0x143D0, size: 0x8, addend: 0x0, symName: __ZNSt3__120__tree_is_left_childB7v160006IPNS_16__tree_node_baseIPvEEEEbT_, symObjAddr: 0x3C674, symBinAddr: 0x10003D2C8, symSize: 0xB8 }
  - { offsetInCU: 0x14405, offset: 0x14405, size: 0x8, addend: 0x0, symName: __ZNSt3__121__convert_to_integralB7v160006El, symObjAddr: 0x3C804, symBinAddr: 0x10003D458, symSize: 0x14 }
  - { offsetInCU: 0x14431, offset: 0x14431, size: 0x8, addend: 0x0, symName: __ZNSt3__19__advanceB7v160006INS_21__tree_const_iteratorINS_12__value_typeINS_12basic_stringIcNS_11char_traitsIcEENS_9allocatorIcEEEES8_EEPNS_11__tree_nodeIS9_PvEElEEEEvRT_NS_15iterator_traitsISF_E15difference_typeENS_26bidirectional_iterator_tagE, symObjAddr: 0x3C818, symBinAddr: 0x10003D46C, symSize: 0xA4 }
  - { offsetInCU: 0x1447A, offset: 0x1447A, size: 0x8, addend: 0x0, symName: __ZNSt3__116__tree_next_iterB7v160006IPNS_15__tree_end_nodeIPNS_16__tree_node_baseIPvEEEES5_EET_T0_, symObjAddr: 0x3C964, symBinAddr: 0x10003D5B8, symSize: 0x134 }
  - { offsetInCU: 0x144B8, offset: 0x144B8, size: 0x8, addend: 0x0, symName: __ZNSt3__110__tree_minB7v160006IPNS_16__tree_node_baseIPvEEEET_S5_, symObjAddr: 0x3CA98, symBinAddr: 0x10003D6EC, symSize: 0xC4 }
  - { offsetInCU: 0x1450B, offset: 0x1450B, size: 0x8, addend: 0x0, symName: __ZNSt3__127__tree_balance_after_insertB7v160006IPNS_16__tree_node_baseIPvEEEEvT_S5_, symObjAddr: 0x3D384, symBinAddr: 0x10003DFD8, symSize: 0x8A8 }
  - { offsetInCU: 0x1457F, offset: 0x1457F, size: 0x8, addend: 0x0, symName: __ZNSt3__118__tree_left_rotateB7v160006IPNS_16__tree_node_baseIPvEEEEvT_, symObjAddr: 0x3DC54, symBinAddr: 0x10003E8A8, symSize: 0x3BC }
  - { offsetInCU: 0x145C1, offset: 0x145C1, size: 0x8, addend: 0x0, symName: __ZNSt3__119__tree_right_rotateB7v160006IPNS_16__tree_node_baseIPvEEEEvT_, symObjAddr: 0x3E010, symBinAddr: 0x10003EC64, symSize: 0x384 }
  - { offsetInCU: 0x14636, offset: 0x14636, size: 0x8, addend: 0x0, symName: __ZNSt3__18distanceB7v160006INS_16__deque_iteratorI8locationPKS2_RS3_PKS4_lLl16EEEEENS_15iterator_traitsIT_E15difference_typeESA_SA_, symObjAddr: 0x40BF4, symBinAddr: 0x100041848, symSize: 0x35C }
  - { offsetInCU: 0x14681, offset: 0x14681, size: 0x8, addend: 0x0, symName: __ZNSt3__1neB7v160006ERKNS_5dequeI8locationNS_9allocatorIS1_EEE13__deque_rangeES7_, symObjAddr: 0x42994, symBinAddr: 0x1000435E8, symSize: 0x34 }
  - { offsetInCU: 0x146BE, offset: 0x146BE, size: 0x8, addend: 0x0, symName: __ZNSt3__112__to_addressB7v160006I8locationEEPT_S3_, symObjAddr: 0x42DD4, symBinAddr: 0x100043A28, symSize: 0x14 }
  - { offsetInCU: 0x146F3, offset: 0x146F3, size: 0x8, addend: 0x0, symName: __ZNSt3__110__distanceB7v160006INS_16__deque_iteratorI8locationPKS2_RS3_PKS4_lLl16EEEEENS_15iterator_traitsIT_E15difference_typeESA_SA_NS_26random_access_iterator_tagE, symObjAddr: 0x43230, symBinAddr: 0x100043E84, symSize: 0x278 }
  - { offsetInCU: 0x14749, offset: 0x14749, size: 0x8, addend: 0x0, symName: __ZNSt3__1miB7v160006ERKNS_16__deque_iteratorI8locationPKS1_RS2_PKS3_lLl16EEES9_, symObjAddr: 0x434A8, symBinAddr: 0x1000440FC, symSize: 0x28C }
  - { offsetInCU: 0x14786, offset: 0x14786, size: 0x8, addend: 0x0, symName: __ZNSt3__1neB7v160006ERKNS_16__deque_iteratorI8locationPKS1_RS2_PKS3_lLl16EEES9_, symObjAddr: 0x43734, symBinAddr: 0x100044388, symSize: 0x34 }
  - { offsetInCU: 0x147C3, offset: 0x147C3, size: 0x8, addend: 0x0, symName: __ZNSt3__1eqB7v160006ERKNS_16__deque_iteratorI8locationPKS1_RS2_PKS3_lLl16EEES9_, symObjAddr: 0x43768, symBinAddr: 0x1000443BC, symSize: 0xC0 }
  - { offsetInCU: 0x14800, offset: 0x14800, size: 0x8, addend: 0x0, symName: __ZNSt3__1eqB7v160006ERKNS_5dequeI8locationNS_9allocatorIS1_EEE13__deque_rangeES7_, symObjAddr: 0x449C4, symBinAddr: 0x100045618, symSize: 0x30 }
  - { offsetInCU: 0x1483D, offset: 0x1483D, size: 0x8, addend: 0x0, symName: __ZNSt3__1eqB7v160006ERKNS_16__deque_iteratorI8locationPS1_RS1_PS2_lLl16EEES7_, symObjAddr: 0x449F4, symBinAddr: 0x100045648, symSize: 0xC0 }
  - { offsetInCU: 0x1487A, offset: 0x1487A, size: 0x8, addend: 0x0, symName: __ZNSt3__1neB7v160006ERKNS_16__deque_iteratorI8locationPS1_RS1_PS2_lLl16EEES7_, symObjAddr: 0x4548C, symBinAddr: 0x1000460E0, symSize: 0x34 }
  - { offsetInCU: 0x14B1C, offset: 0x14B1C, size: 0x8, addend: 0x0, symName: __ZSt28__throw_bad_array_new_lengthB7v160006v, symObjAddr: 0x15B9C, symBinAddr: 0x1000167F0, symSize: 0x38 }
  - { offsetInCU: 0x15CC6, offset: 0x15CC6, size: 0x8, addend: 0x0, symName: __Z7isdigiti, symObjAddr: 0x168, symBinAddr: 0x100000DBC, symSize: 0x28 }
  - { offsetInCU: 0x17DE9, offset: 0x17DE9, size: 0x8, addend: 0x0, symName: __Z14check_is_digitPc, symObjAddr: 0x0, symBinAddr: 0x100000C54, symSize: 0x168 }
  - { offsetInCU: 0x17EA9, offset: 0x17EA9, size: 0x8, addend: 0x0, symName: __ZN5confi12split_stringERNSt3__112basic_stringIcNS0_11char_traitsIcEENS0_9allocatorIcEEEER8locationc, symObjAddr: 0x1D8, symBinAddr: 0x100000E2C, symSize: 0x504 }
  - { offsetInCU: 0x17F0E, offset: 0x17F0E, size: 0x8, addend: 0x0, symName: __ZNKSt3__112basic_stringIcNS_11char_traitsIcEENS_9allocatorIcEEE5c_strB7v160006Ev, symObjAddr: 0x6DC, symBinAddr: 0x100001330, symSize: 0x24 }
  - { offsetInCU: 0x17F34, offset: 0x17F34, size: 0x8, addend: 0x0, symName: __ZNSt3__15dequeINS_12basic_stringIcNS_11char_traitsIcEENS_9allocatorIcEEEENS4_IS6_EEE9push_backERKS6_, symObjAddr: 0x700, symBinAddr: 0x100001354, symSize: 0x2C0 }
  - { offsetInCU: 0x17F82, offset: 0x17F82, size: 0x8, addend: 0x0, symName: __ZNSt3__112basic_stringIcNS_11char_traitsIcEENS_9allocatorIcEEEC1B7v160006IDnEEPKc, symObjAddr: 0x9C0, symBinAddr: 0x100001614, symSize: 0x34 }
  - { offsetInCU: 0x17FBF, offset: 0x17FBF, size: 0x8, addend: 0x0, symName: __Z10parse_hostNSt3__112basic_stringIcNS_11char_traitsIcEENS_9allocatorIcEEEE, symObjAddr: 0xA00, symBinAddr: 0x100001654, symSize: 0xFC }
  - { offsetInCU: 0x18013, offset: 0x18013, size: 0x8, addend: 0x0, symName: __ZN5confi19setup_configurationENSt3__112basic_stringIcNS0_11char_traitsIcEENS0_9allocatorIcEEEE, symObjAddr: 0xAFC, symBinAddr: 0x100001750, symSize: 0x1F80 }
  - { offsetInCU: 0x18275, offset: 0x18275, size: 0x8, addend: 0x0, symName: __ZNSt3__113basic_fstreamIcNS_11char_traitsIcEEEC1Ev, symObjAddr: 0x2A7C, symBinAddr: 0x1000036D0, symSize: 0x254 }
  - { offsetInCU: 0x182A1, offset: 0x182A1, size: 0x8, addend: 0x0, symName: __ZNSt3__112basic_stringIcNS_11char_traitsIcEENS_9allocatorIcEEEC1B7v160006Ev, symObjAddr: 0x2CD0, symBinAddr: 0x100003924, symSize: 0x2C }
  - { offsetInCU: 0x182D0, offset: 0x182D0, size: 0x8, addend: 0x0, symName: __ZN6serverC1Ev, symObjAddr: 0x2CFC, symBinAddr: 0x100003950, symSize: 0x2C }
  - { offsetInCU: 0x18301, offset: 0x18301, size: 0x8, addend: 0x0, symName: __ZN8locationC1Ev, symObjAddr: 0x2D28, symBinAddr: 0x10000397C, symSize: 0x2C }
  - { offsetInCU: 0x1832D, offset: 0x1832D, size: 0x8, addend: 0x0, symName: __ZNSt3__113basic_fstreamIcNS_11char_traitsIcEEE4openERKNS_12basic_stringIcS2_NS_9allocatorIcEEEEj, symObjAddr: 0x2D54, symBinAddr: 0x1000039A8, symSize: 0x16C }
  - { offsetInCU: 0x18373, offset: 0x18373, size: 0x8, addend: 0x0, symName: __ZNKSt3__113basic_fstreamIcNS_11char_traitsIcEEE7is_openEv, symObjAddr: 0x2EC0, symBinAddr: 0x100003B14, symSize: 0x2C }
  - { offsetInCU: 0x1839B, offset: 0x1839B, size: 0x8, addend: 0x0, symName: __ZNKSt3__14fposI11__mbstate_tEcvxB7v160006Ev, symObjAddr: 0x2EEC, symBinAddr: 0x100003B40, symSize: 0x64 }
  - { offsetInCU: 0x183C1, offset: 0x183C1, size: 0x8, addend: 0x0, symName: __ZNKSt3__19basic_iosIcNS_11char_traitsIcEEEcvPvB7v160006Ev, symObjAddr: 0x3028, symBinAddr: 0x100003C7C, symSize: 0x4C }
  - { offsetInCU: 0x18437, offset: 0x18437, size: 0x8, addend: 0x0, symName: __ZNSt3__118basic_stringstreamIcNS_11char_traitsIcEENS_9allocatorIcEEEC1B7v160006ERKNS_12basic_stringIcS2_S4_EEj, symObjAddr: 0x3074, symBinAddr: 0x100003CC8, symSize: 0x264 }
  - { offsetInCU: 0x1847F, offset: 0x1847F, size: 0x8, addend: 0x0, symName: __ZNKSt3__19basic_iosIcNS_11char_traitsIcEEE3eofB7v160006Ev, symObjAddr: 0x3C6C, symBinAddr: 0x1000048C0, symSize: 0x28 }
  - { offsetInCU: 0x184A5, offset: 0x184A5, size: 0x8, addend: 0x0, symName: __ZNSt3__112basic_stringIcNS_11char_traitsIcEENS_9allocatorIcEEEaSB7v160006EPKc, symObjAddr: 0x3C94, symBinAddr: 0x1000048E8, symSize: 0x2C }
  - { offsetInCU: 0x184DA, offset: 0x184DA, size: 0x8, addend: 0x0, symName: __ZNSt3__15dequeI8locationNS_9allocatorIS1_EEE9push_backERKS1_, symObjAddr: 0x3CC0, symBinAddr: 0x100004914, symSize: 0x2C0 }
  - { offsetInCU: 0x18523, offset: 0x18523, size: 0x8, addend: 0x0, symName: __ZNSt3__15dequeINS_12basic_stringIcNS_11char_traitsIcEENS_9allocatorIcEEEENS4_IS6_EEE5clearEv, symObjAddr: 0x3F80, symBinAddr: 0x100004BD4, symSize: 0x4F0 }
  - { offsetInCU: 0x18590, offset: 0x18590, size: 0x8, addend: 0x0, symName: __ZNSt3__112basic_stringIcNS_11char_traitsIcEENS_9allocatorIcEEE5clearB7v160006Ev, symObjAddr: 0x4470, symBinAddr: 0x1000050C4, symSize: 0x33C }
  - { offsetInCU: 0x185B9, offset: 0x185B9, size: 0x8, addend: 0x0, symName: __ZNKSt3__112basic_stringIcNS_11char_traitsIcEENS_9allocatorIcEEE5emptyB7v160006Ev, symObjAddr: 0x47AC, symBinAddr: 0x100005400, symSize: 0x30 }
  - { offsetInCU: 0x185DF, offset: 0x185DF, size: 0x8, addend: 0x0, symName: __ZNSt3__113basic_ostreamIcNS_11char_traitsIcEEElsB7v160006EPFRS3_S4_E, symObjAddr: 0x47DC, symBinAddr: 0x100005430, symSize: 0x2C }
  - { offsetInCU: 0x18618, offset: 0x18618, size: 0x8, addend: 0x0, symName: __ZNSt3__118basic_stringstreamIcNS_11char_traitsIcEENS_9allocatorIcEEED1Ev, symObjAddr: 0x48DC, symBinAddr: 0x100005530, symSize: 0x7C }
  - { offsetInCU: 0x18645, offset: 0x18645, size: 0x8, addend: 0x0, symName: __ZNKSt3__15dequeI8locationNS_9allocatorIS1_EEE5emptyB7v160006Ev, symObjAddr: 0x4958, symBinAddr: 0x1000055AC, symSize: 0x30 }
  - { offsetInCU: 0x1866B, offset: 0x1866B, size: 0x8, addend: 0x0, symName: __ZNSt3__15dequeI6serverNS_9allocatorIS1_EEE9push_backERKS1_, symObjAddr: 0x4988, symBinAddr: 0x1000055DC, symSize: 0x2C0 }
  - { offsetInCU: 0x186B4, offset: 0x186B4, size: 0x8, addend: 0x0, symName: __ZNSt3__13mapINS_12basic_stringIcNS_11char_traitsIcEENS_9allocatorIcEEEES6_NS_4lessIS6_EENS4_INS_4pairIKS6_S6_EEEEE5clearB7v160006Ev, symObjAddr: 0x4C48, symBinAddr: 0x10000589C, symSize: 0x24 }
  - { offsetInCU: 0x186DA, offset: 0x186DA, size: 0x8, addend: 0x0, symName: __ZNSt3__15dequeI8locationNS_9allocatorIS1_EEE5clearEv, symObjAddr: 0x4C6C, symBinAddr: 0x1000058C0, symSize: 0x4F0 }
  - { offsetInCU: 0x18747, offset: 0x18747, size: 0x8, addend: 0x0, symName: __ZNSt3__13mapINS_12basic_stringIcNS_11char_traitsIcEENS_9allocatorIcEEEES6_NS_4lessIS6_EENS4_INS_4pairIKS6_S6_EEEEEixERSA_, symObjAddr: 0x515C, symBinAddr: 0x100005DB0, symSize: 0x374 }
  - { offsetInCU: 0x187CC, offset: 0x187CC, size: 0x8, addend: 0x0, symName: __ZN8locationD1Ev, symObjAddr: 0x54D0, symBinAddr: 0x100006124, symSize: 0x2C }
  - { offsetInCU: 0x187F8, offset: 0x187F8, size: 0x8, addend: 0x0, symName: __ZN6serverD1Ev, symObjAddr: 0x54FC, symBinAddr: 0x100006150, symSize: 0x2C }
  - { offsetInCU: 0x18829, offset: 0x18829, size: 0x8, addend: 0x0, symName: __ZNSt3__113basic_fstreamIcNS_11char_traitsIcEEED1Ev, symObjAddr: 0x5528, symBinAddr: 0x10000617C, symSize: 0x7C }
  - { offsetInCU: 0x18855, offset: 0x18855, size: 0x8, addend: 0x0, symName: _main, symObjAddr: 0x55A4, symBinAddr: 0x1000061F8, symSize: 0x438 }
  - { offsetInCU: 0x188A0, offset: 0x188A0, size: 0x8, addend: 0x0, symName: __ZN5confiC1Ev, symObjAddr: 0x59DC, symBinAddr: 0x100006630, symSize: 0x2C }
  - { offsetInCU: 0x188CC, offset: 0x188CC, size: 0x8, addend: 0x0, symName: __ZN5confiD1Ev, symObjAddr: 0x5A08, symBinAddr: 0x10000665C, symSize: 0x2C }
  - { offsetInCU: 0x188F7, offset: 0x188F7, size: 0x8, addend: 0x0, symName: __Z9__isctypeim, symObjAddr: 0x5A34, symBinAddr: 0x100006688, symSize: 0xFC }
  - { offsetInCU: 0x18932, offset: 0x18932, size: 0x8, addend: 0x0, symName: __ZN6serverC2Ev, symObjAddr: 0x5B30, symBinAddr: 0x100006784, symSize: 0x144 }
  - { offsetInCU: 0x1895E, offset: 0x1895E, size: 0x8, addend: 0x0, symName: __ZNSt3__13mapINS_12basic_stringIcNS_11char_traitsIcEENS_9allocatorIcEEEES6_NS_4lessIS6_EENS4_INS_4pairIKS6_S6_EEEEEC1B7v160006Ev, symObjAddr: 0x5C74, symBinAddr: 0x1000068C8, symSize: 0x2C }
  - { offsetInCU: 0x18988, offset: 0x18988, size: 0x8, addend: 0x0, symName: __ZNSt3__15dequeI8locationNS_9allocatorIS1_EEEC1B7v160006Ev, symObjAddr: 0x5CA0, symBinAddr: 0x1000068F4, symSize: 0x2C }
  - { offsetInCU: 0x189B2, offset: 0x189B2, size: 0x8, addend: 0x0, symName: __ZNSt3__13mapINS_12basic_stringIcNS_11char_traitsIcEENS_9allocatorIcEEEES6_NS_4lessIS6_EENS4_INS_4pairIKS6_S6_EEEEED1B7v160006Ev, symObjAddr: 0x5CCC, symBinAddr: 0x100006920, symSize: 0x2C }
  - { offsetInCU: 0x189DC, offset: 0x189DC, size: 0x8, addend: 0x0, symName: __ZNSt3__13mapINS_12basic_stringIcNS_11char_traitsIcEENS_9allocatorIcEEEES6_NS_4lessIS6_EENS4_INS_4pairIKS6_S6_EEEEEC2B7v160006Ev, symObjAddr: 0x5CF8, symBinAddr: 0x10000694C, symSize: 0x1E8 }
  - { offsetInCU: 0x18A07, offset: 0x18A07, size: 0x8, addend: 0x0, symName: __ZNSt3__119__map_value_compareINS_12basic_stringIcNS_11char_traitsIcEENS_9allocatorIcEEEENS_12__value_typeIS6_S6_EENS_4lessIS6_EELb1EEC1B7v160006ESA_, symObjAddr: 0x5EE0, symBinAddr: 0x100006B34, symSize: 0x2C }
  - { offsetInCU: 0x18A40, offset: 0x18A40, size: 0x8, addend: 0x0, symName: __ZNSt3__16__treeINS_12__value_typeINS_12basic_stringIcNS_11char_traitsIcEENS_9allocatorIcEEEES7_EENS_19__map_value_compareIS7_S8_NS_4lessIS7_EELb1EEENS5_IS8_EEEC1ERKSC_, symObjAddr: 0x5F0C, symBinAddr: 0x100006B60, symSize: 0x34 }
  - { offsetInCU: 0x18A7B, offset: 0x18A7B, size: 0x8, addend: 0x0, symName: __ZNSt3__119__map_value_compareINS_12basic_stringIcNS_11char_traitsIcEENS_9allocatorIcEEEENS_12__value_typeIS6_S6_EENS_4lessIS6_EELb1EEC2B7v160006ESA_, symObjAddr: 0x5F40, symBinAddr: 0x100006B94, symSize: 0x14 }
  - { offsetInCU: 0x18AB4, offset: 0x18AB4, size: 0x8, addend: 0x0, symName: __ZNSt3__16__treeINS_12__value_typeINS_12basic_stringIcNS_11char_traitsIcEENS_9allocatorIcEEEES7_EENS_19__map_value_compareIS7_S8_NS_4lessIS7_EELb1EEENS5_IS8_EEEC2ERKSC_, symObjAddr: 0x5F54, symBinAddr: 0x100006BA8, symSize: 0x2B4 }
  - { offsetInCU: 0x18AF1, offset: 0x18AF1, size: 0x8, addend: 0x0, symName: __ZNSt3__117__compressed_pairINS_15__tree_end_nodeIPNS_16__tree_node_baseIPvEEEENS_9allocatorINS_11__tree_nodeINS_12__value_typeINS_12basic_stringIcNS_11char_traitsIcEENS7_IcEEEESE_EES3_EEEEEC1B7v160006ILb1EvEEv, symObjAddr: 0x6208, symBinAddr: 0x100006E5C, symSize: 0x2C }
  - { offsetInCU: 0x18B2B, offset: 0x18B2B, size: 0x8, addend: 0x0, symName: __ZNSt3__117__compressed_pairImNS_19__map_value_compareINS_12basic_stringIcNS_11char_traitsIcEENS_9allocatorIcEEEENS_12__value_typeIS7_S7_EENS_4lessIS7_EELb1EEEEC1B7v160006IiRKSC_EEOT_OT0_, symObjAddr: 0x6234, symBinAddr: 0x100006E88, symSize: 0x3C }
  - { offsetInCU: 0x18B83, offset: 0x18B83, size: 0x8, addend: 0x0, symName: __ZNSt3__16__treeINS_12__value_typeINS_12basic_stringIcNS_11char_traitsIcEENS_9allocatorIcEEEES7_EENS_19__map_value_compareIS7_S8_NS_4lessIS7_EELb1EEENS5_IS8_EEE10__end_nodeB7v160006Ev, symObjAddr: 0x6270, symBinAddr: 0x100006EC4, symSize: 0x2C }
  - { offsetInCU: 0x18BA9, offset: 0x18BA9, size: 0x8, addend: 0x0, symName: __ZNSt3__16__treeINS_12__value_typeINS_12basic_stringIcNS_11char_traitsIcEENS_9allocatorIcEEEES7_EENS_19__map_value_compareIS7_S8_NS_4lessIS7_EELb1EEENS5_IS8_EEE12__begin_nodeB7v160006Ev, symObjAddr: 0x629C, symBinAddr: 0x100006EF0, symSize: 0x14 }
  - { offsetInCU: 0x18BCF, offset: 0x18BCF, size: 0x8, addend: 0x0, symName: __ZNSt3__117__compressed_pairINS_15__tree_end_nodeIPNS_16__tree_node_baseIPvEEEENS_9allocatorINS_11__tree_nodeINS_12__value_typeINS_12basic_stringIcNS_11char_traitsIcEENS7_IcEEEESE_EES3_EEEEEC2B7v160006ILb1EvEEv, symObjAddr: 0x62B0, symBinAddr: 0x100006F04, symSize: 0x34 }
  - { offsetInCU: 0x18C04, offset: 0x18C04, size: 0x8, addend: 0x0, symName: __ZNSt3__122__compressed_pair_elemINS_15__tree_end_nodeIPNS_16__tree_node_baseIPvEEEELi0ELb0EEC2B7v160006ENS_16__value_init_tagE, symObjAddr: 0x62E4, symBinAddr: 0x100006F38, symSize: 0x2C }
  - { offsetInCU: 0x18C38, offset: 0x18C38, size: 0x8, addend: 0x0, symName: __ZNSt3__122__compressed_pair_elemINS_9allocatorINS_11__tree_nodeINS_12__value_typeINS_12basic_stringIcNS_11char_traitsIcEENS1_IcEEEES8_EEPvEEEELi1ELb1EEC2B7v160006ENS_16__value_init_tagE, symObjAddr: 0x6310, symBinAddr: 0x100006F64, symSize: 0x2C }
  - { offsetInCU: 0x18C6C, offset: 0x18C6C, size: 0x8, addend: 0x0, symName: __ZNSt3__115__tree_end_nodeIPNS_16__tree_node_baseIPvEEEC1B7v160006Ev, symObjAddr: 0x633C, symBinAddr: 0x100006F90, symSize: 0x2C }
  - { offsetInCU: 0x18C96, offset: 0x18C96, size: 0x8, addend: 0x0, symName: __ZNSt3__115__tree_end_nodeIPNS_16__tree_node_baseIPvEEEC2B7v160006Ev, symObjAddr: 0x6368, symBinAddr: 0x100006FBC, symSize: 0x60 }
  - { offsetInCU: 0x18CC0, offset: 0x18CC0, size: 0x8, addend: 0x0, symName: __ZNSt3__19allocatorINS_11__tree_nodeINS_12__value_typeINS_12basic_stringIcNS_11char_traitsIcEENS0_IcEEEES7_EEPvEEEC2B7v160006Ev, symObjAddr: 0x63C8, symBinAddr: 0x10000701C, symSize: 0x2C }
  - { offsetInCU: 0x18CEA, offset: 0x18CEA, size: 0x8, addend: 0x0, symName: __ZNSt3__116__non_trivial_ifILb1ENS_9allocatorINS_11__tree_nodeINS_12__value_typeINS_12basic_stringIcNS_11char_traitsIcEENS1_IcEEEES8_EEPvEEEEEC2B7v160006Ev, symObjAddr: 0x63F4, symBinAddr: 0x100007048, symSize: 0x14 }
  - { offsetInCU: 0x18D14, offset: 0x18D14, size: 0x8, addend: 0x0, symName: __ZNSt3__117__compressed_pairImNS_19__map_value_compareINS_12basic_stringIcNS_11char_traitsIcEENS_9allocatorIcEEEENS_12__value_typeIS7_S7_EENS_4lessIS7_EELb1EEEEC2B7v160006IiRKSC_EEOT_OT0_, symObjAddr: 0x6408, symBinAddr: 0x10000705C, symSize: 0x44 }
  - { offsetInCU: 0x18D6C, offset: 0x18D6C, size: 0x8, addend: 0x0, symName: __ZNSt3__122__compressed_pair_elemImLi0ELb0EEC2B7v160006IivEEOT_, symObjAddr: 0x644C, symBinAddr: 0x1000070A0, symSize: 0xD8 }
  - { offsetInCU: 0x18DAE, offset: 0x18DAE, size: 0x8, addend: 0x0, symName: __ZNSt3__122__compressed_pair_elemINS_19__map_value_compareINS_12basic_stringIcNS_11char_traitsIcEENS_9allocatorIcEEEENS_12__value_typeIS7_S7_EENS_4lessIS7_EELb1EEELi1ELb1EEC2B7v160006IRKSC_vEEOT_, symObjAddr: 0x6524, symBinAddr: 0x100007178, symSize: 0x18 }
  - { offsetInCU: 0x18DF0, offset: 0x18DF0, size: 0x8, addend: 0x0, symName: __ZNSt3__114pointer_traitsIPNS_15__tree_end_nodeIPNS_16__tree_node_baseIPvEEEEE10pointer_toB7v160006ERS6_, symObjAddr: 0x653C, symBinAddr: 0x100007190, symSize: 0x14 }
  - { offsetInCU: 0x18E13, offset: 0x18E13, size: 0x8, addend: 0x0, symName: __ZNSt3__117__compressed_pairINS_15__tree_end_nodeIPNS_16__tree_node_baseIPvEEEENS_9allocatorINS_11__tree_nodeINS_12__value_typeINS_12basic_stringIcNS_11char_traitsIcEENS7_IcEEEESE_EES3_EEEEE5firstB7v160006Ev, symObjAddr: 0x6550, symBinAddr: 0x1000071A4, symSize: 0x24 }
  - { offsetInCU: 0x18E39, offset: 0x18E39, size: 0x8, addend: 0x0, symName: __ZNSt3__122__compressed_pair_elemINS_15__tree_end_nodeIPNS_16__tree_node_baseIPvEEEELi0ELb0EE5__getB7v160006Ev, symObjAddr: 0x6574, symBinAddr: 0x1000071C8, symSize: 0x14 }
  - { offsetInCU: 0x18E5F, offset: 0x18E5F, size: 0x8, addend: 0x0, symName: __ZNSt3__15dequeI8locationNS_9allocatorIS1_EEEC2B7v160006Ev, symObjAddr: 0x6588, symBinAddr: 0x1000071DC, symSize: 0x36C }
  - { offsetInCU: 0x18E8A, offset: 0x18E8A, size: 0x8, addend: 0x0, symName: __ZNSt3__114__split_bufferIP8locationNS_9allocatorIS2_EEEC1Ev, symObjAddr: 0x68F4, symBinAddr: 0x100007548, symSize: 0x2C }
  - { offsetInCU: 0x18EBB, offset: 0x18EBB, size: 0x8, addend: 0x0, symName: __ZNSt3__117__compressed_pairImNS_9allocatorI8locationEEEC1B7v160006IiNS_18__default_init_tagEEEOT_OT0_, symObjAddr: 0x6920, symBinAddr: 0x100007574, symSize: 0x3C }
  - { offsetInCU: 0x18F13, offset: 0x18F13, size: 0x8, addend: 0x0, symName: __ZNSt3__114__split_bufferIP8locationNS_9allocatorIS2_EEED1Ev, symObjAddr: 0x695C, symBinAddr: 0x1000075B0, symSize: 0x2C }
  - { offsetInCU: 0x18F3F, offset: 0x18F3F, size: 0x8, addend: 0x0, symName: __ZNSt3__114__split_bufferIP8locationNS_9allocatorIS2_EEEC2Ev, symObjAddr: 0x6988, symBinAddr: 0x1000075DC, symSize: 0x30C }
  - { offsetInCU: 0x18F71, offset: 0x18F71, size: 0x8, addend: 0x0, symName: __ZNSt3__117__compressed_pairIPP8locationNS_9allocatorIS2_EEEC1B7v160006IDnNS_18__default_init_tagEEEOT_OT0_, symObjAddr: 0x6C94, symBinAddr: 0x1000078E8, symSize: 0x3C }
  - { offsetInCU: 0x18FC9, offset: 0x18FC9, size: 0x8, addend: 0x0, symName: __ZNSt3__117__compressed_pairIPP8locationNS_9allocatorIS2_EEEC2B7v160006IDnNS_18__default_init_tagEEEOT_OT0_, symObjAddr: 0x6CD0, symBinAddr: 0x100007924, symSize: 0x40 }
  - { offsetInCU: 0x19021, offset: 0x19021, size: 0x8, addend: 0x0, symName: __ZNSt3__122__compressed_pair_elemIPP8locationLi0ELb0EEC2B7v160006IDnvEEOT_, symObjAddr: 0x6D10, symBinAddr: 0x100007964, symSize: 0x64 }
  - { offsetInCU: 0x19063, offset: 0x19063, size: 0x8, addend: 0x0, symName: __ZNSt3__122__compressed_pair_elemINS_9allocatorIP8locationEELi1ELb1EEC2B7v160006ENS_18__default_init_tagE, symObjAddr: 0x6D74, symBinAddr: 0x1000079C8, symSize: 0x2C }
  - { offsetInCU: 0x19097, offset: 0x19097, size: 0x8, addend: 0x0, symName: __ZNSt3__19allocatorIP8locationEC2B7v160006Ev, symObjAddr: 0x6DA0, symBinAddr: 0x1000079F4, symSize: 0x2C }
  - { offsetInCU: 0x190C1, offset: 0x190C1, size: 0x8, addend: 0x0, symName: __ZNSt3__116__non_trivial_ifILb1ENS_9allocatorIP8locationEEEC2B7v160006Ev, symObjAddr: 0x6DCC, symBinAddr: 0x100007A20, symSize: 0x14 }
  - { offsetInCU: 0x190EB, offset: 0x190EB, size: 0x8, addend: 0x0, symName: __ZNSt3__117__compressed_pairImNS_9allocatorI8locationEEEC2B7v160006IiNS_18__default_init_tagEEEOT_OT0_, symObjAddr: 0x6DE0, symBinAddr: 0x100007A34, symSize: 0x40 }
  - { offsetInCU: 0x19143, offset: 0x19143, size: 0x8, addend: 0x0, symName: __ZNSt3__122__compressed_pair_elemINS_9allocatorI8locationEELi1ELb1EEC2B7v160006ENS_18__default_init_tagE, symObjAddr: 0x6E20, symBinAddr: 0x100007A74, symSize: 0x2C }
  - { offsetInCU: 0x19177, offset: 0x19177, size: 0x8, addend: 0x0, symName: __ZNSt3__19allocatorI8locationEC2B7v160006Ev, symObjAddr: 0x6E4C, symBinAddr: 0x100007AA0, symSize: 0x2C }
  - { offsetInCU: 0x191A1, offset: 0x191A1, size: 0x8, addend: 0x0, symName: __ZNSt3__116__non_trivial_ifILb1ENS_9allocatorI8locationEEEC2B7v160006Ev, symObjAddr: 0x6E78, symBinAddr: 0x100007ACC, symSize: 0x14 }
  - { offsetInCU: 0x191CB, offset: 0x191CB, size: 0x8, addend: 0x0, symName: __ZNSt3__114__split_bufferIP8locationNS_9allocatorIS2_EEED2Ev, symObjAddr: 0x6E8C, symBinAddr: 0x100007AE0, symSize: 0xEC }
  - { offsetInCU: 0x191F7, offset: 0x191F7, size: 0x8, addend: 0x0, symName: __ZNSt3__114__split_bufferIP8locationNS_9allocatorIS2_EEE5clearB7v160006Ev, symObjAddr: 0x6F78, symBinAddr: 0x100007BCC, symSize: 0x68 }
  - { offsetInCU: 0x1921D, offset: 0x1921D, size: 0x8, addend: 0x0, symName: __ZNSt3__116allocator_traitsINS_9allocatorIP8locationEEE10deallocateB7v160006ERS4_PS3_m, symObjAddr: 0x6FE0, symBinAddr: 0x100007C34, symSize: 0x34 }
  - { offsetInCU: 0x1925F, offset: 0x1925F, size: 0x8, addend: 0x0, symName: __ZNSt3__114__split_bufferIP8locationNS_9allocatorIS2_EEE7__allocB7v160006Ev, symObjAddr: 0x7014, symBinAddr: 0x100007C68, symSize: 0x28 }
  - { offsetInCU: 0x19285, offset: 0x19285, size: 0x8, addend: 0x0, symName: __ZNKSt3__114__split_bufferIP8locationNS_9allocatorIS2_EEE8capacityB7v160006Ev, symObjAddr: 0x703C, symBinAddr: 0x100007C90, symSize: 0xBC }
  - { offsetInCU: 0x192AB, offset: 0x192AB, size: 0x8, addend: 0x0, symName: __ZNSt3__114__split_bufferIP8locationNS_9allocatorIS2_EEE17__destruct_at_endB7v160006EPS2_, symObjAddr: 0x70F8, symBinAddr: 0x100007D4C, symSize: 0x2C }
  - { offsetInCU: 0x192DF, offset: 0x192DF, size: 0x8, addend: 0x0, symName: __ZNSt3__114__split_bufferIP8locationNS_9allocatorIS2_EEE17__destruct_at_endB7v160006EPS2_NS_17integral_constantIbLb0EEE, symObjAddr: 0x7124, symBinAddr: 0x100007D78, symSize: 0x120 }
  - { offsetInCU: 0x1931F, offset: 0x1931F, size: 0x8, addend: 0x0, symName: __ZNSt3__116allocator_traitsINS_9allocatorIP8locationEEE7destroyB7v160006IS3_vEEvRS4_PT_, symObjAddr: 0x7244, symBinAddr: 0x100007E98, symSize: 0x2C }
  - { offsetInCU: 0x1935C, offset: 0x1935C, size: 0x8, addend: 0x0, symName: __ZNSt3__19allocatorIP8locationE7destroyB7v160006EPS2_, symObjAddr: 0x7284, symBinAddr: 0x100007ED8, symSize: 0x14 }
  - { offsetInCU: 0x19390, offset: 0x19390, size: 0x8, addend: 0x0, symName: __ZNSt3__19allocatorIP8locationE10deallocateB7v160006EPS2_m, symObjAddr: 0x7298, symBinAddr: 0x100007EEC, symSize: 0x7C }
  - { offsetInCU: 0x193D2, offset: 0x193D2, size: 0x8, addend: 0x0, symName: __ZNSt3__117__compressed_pairIPP8locationNS_9allocatorIS2_EEE6secondB7v160006Ev, symObjAddr: 0x739C, symBinAddr: 0x100007FF0, symSize: 0x24 }
  - { offsetInCU: 0x193F8, offset: 0x193F8, size: 0x8, addend: 0x0, symName: __ZNSt3__122__compressed_pair_elemINS_9allocatorIP8locationEELi1ELb1EE5__getB7v160006Ev, symObjAddr: 0x73C0, symBinAddr: 0x100008014, symSize: 0x14 }
  - { offsetInCU: 0x1941E, offset: 0x1941E, size: 0x8, addend: 0x0, symName: __ZNKSt3__114__split_bufferIP8locationNS_9allocatorIS2_EEE9__end_capB7v160006Ev, symObjAddr: 0x73D4, symBinAddr: 0x100008028, symSize: 0x28 }
  - { offsetInCU: 0x19444, offset: 0x19444, size: 0x8, addend: 0x0, symName: __ZNKSt3__117__compressed_pairIPP8locationNS_9allocatorIS2_EEE5firstB7v160006Ev, symObjAddr: 0x73FC, symBinAddr: 0x100008050, symSize: 0x24 }
  - { offsetInCU: 0x1946A, offset: 0x1946A, size: 0x8, addend: 0x0, symName: __ZNKSt3__122__compressed_pair_elemIPP8locationLi0ELb0EE5__getB7v160006Ev, symObjAddr: 0x7420, symBinAddr: 0x100008074, symSize: 0x14 }
  - { offsetInCU: 0x19490, offset: 0x19490, size: 0x8, addend: 0x0, symName: __ZNSt3__13mapINS_12basic_stringIcNS_11char_traitsIcEENS_9allocatorIcEEEES6_NS_4lessIS6_EENS4_INS_4pairIKS6_S6_EEEEED2B7v160006Ev, symObjAddr: 0x7434, symBinAddr: 0x100008088, symSize: 0x2C }
  - { offsetInCU: 0x194BA, offset: 0x194BA, size: 0x8, addend: 0x0, symName: __ZNSt3__16__treeINS_12__value_typeINS_12basic_stringIcNS_11char_traitsIcEENS_9allocatorIcEEEES7_EENS_19__map_value_compareIS7_S8_NS_4lessIS7_EELb1EEENS5_IS8_EEED1Ev, symObjAddr: 0x7460, symBinAddr: 0x1000080B4, symSize: 0x2C }
  - { offsetInCU: 0x194E6, offset: 0x194E6, size: 0x8, addend: 0x0, symName: __ZNSt3__16__treeINS_12__value_typeINS_12basic_stringIcNS_11char_traitsIcEENS_9allocatorIcEEEES7_EENS_19__map_value_compareIS7_S8_NS_4lessIS7_EELb1EEENS5_IS8_EEED2Ev, symObjAddr: 0x748C, symBinAddr: 0x1000080E0, symSize: 0x38 }
  - { offsetInCU: 0x19512, offset: 0x19512, size: 0x8, addend: 0x0, symName: __ZNSt3__16__treeINS_12__value_typeINS_12basic_stringIcNS_11char_traitsIcEENS_9allocatorIcEEEES7_EENS_19__map_value_compareIS7_S8_NS_4lessIS7_EELb1EEENS5_IS8_EEE7destroyEPNS_11__tree_nodeIS8_PvEE, symObjAddr: 0x74C4, symBinAddr: 0x100008118, symSize: 0x148 }
  - { offsetInCU: 0x19566, offset: 0x19566, size: 0x8, addend: 0x0, symName: __ZNKSt3__16__treeINS_12__value_typeINS_12basic_stringIcNS_11char_traitsIcEENS_9allocatorIcEEEES7_EENS_19__map_value_compareIS7_S8_NS_4lessIS7_EELb1EEENS5_IS8_EEE6__rootB7v160006Ev, symObjAddr: 0x760C, symBinAddr: 0x100008260, symSize: 0x6C }
  - { offsetInCU: 0x1958C, offset: 0x1958C, size: 0x8, addend: 0x0, symName: __ZNSt3__16__treeINS_12__value_typeINS_12basic_stringIcNS_11char_traitsIcEENS_9allocatorIcEEEES7_EENS_19__map_value_compareIS7_S8_NS_4lessIS7_EELb1EEENS5_IS8_EEE12__node_allocB7v160006Ev, symObjAddr: 0x7678, symBinAddr: 0x1000082CC, symSize: 0x28 }
  - { offsetInCU: 0x195B2, offset: 0x195B2, size: 0x8, addend: 0x0, symName: __ZNSt3__116allocator_traitsINS_9allocatorINS_11__tree_nodeINS_12__value_typeINS_12basic_stringIcNS_11char_traitsIcEENS1_IcEEEES8_EEPvEEEEE7destroyB7v160006INS_4pairIKS8_S8_EEvvEEvRSC_PT_, symObjAddr: 0x76A0, symBinAddr: 0x1000082F4, symSize: 0x28 }
  - { offsetInCU: 0x195ED, offset: 0x195ED, size: 0x8, addend: 0x0, symName: __ZNSt3__122__tree_key_value_typesINS_12__value_typeINS_12basic_stringIcNS_11char_traitsIcEENS_9allocatorIcEEEES7_EEE9__get_ptrB7v160006ERS8_, symObjAddr: 0x76C8, symBinAddr: 0x10000831C, symSize: 0x24 }
  - { offsetInCU: 0x19611, offset: 0x19611, size: 0x8, addend: 0x0, symName: __ZNSt3__116allocator_traitsINS_9allocatorINS_11__tree_nodeINS_12__value_typeINS_12basic_stringIcNS_11char_traitsIcEENS1_IcEEEES8_EEPvEEEEE10deallocateB7v160006ERSC_PSB_m, symObjAddr: 0x76EC, symBinAddr: 0x100008340, symSize: 0x34 }
  - { offsetInCU: 0x19653, offset: 0x19653, size: 0x8, addend: 0x0, symName: __ZNSt3__117__compressed_pairINS_15__tree_end_nodeIPNS_16__tree_node_baseIPvEEEENS_9allocatorINS_11__tree_nodeINS_12__value_typeINS_12basic_stringIcNS_11char_traitsIcEENS7_IcEEEESE_EES3_EEEEE6secondB7v160006Ev, symObjAddr: 0x7720, symBinAddr: 0x100008374, symSize: 0x24 }
  - { offsetInCU: 0x19679, offset: 0x19679, size: 0x8, addend: 0x0, symName: __ZNSt3__122__compressed_pair_elemINS_9allocatorINS_11__tree_nodeINS_12__value_typeINS_12basic_stringIcNS_11char_traitsIcEENS1_IcEEEES8_EEPvEEEELi1ELb1EE5__getB7v160006Ev, symObjAddr: 0x7744, symBinAddr: 0x100008398, symSize: 0x14 }
  - { offsetInCU: 0x1969F, offset: 0x1969F, size: 0x8, addend: 0x0, symName: __ZNSt3__14pairIKNS_12basic_stringIcNS_11char_traitsIcEENS_9allocatorIcEEEES6_ED1Ev, symObjAddr: 0x7758, symBinAddr: 0x1000083AC, symSize: 0x2C }
  - { offsetInCU: 0x196CB, offset: 0x196CB, size: 0x8, addend: 0x0, symName: __ZNSt3__14pairIKNS_12basic_stringIcNS_11char_traitsIcEENS_9allocatorIcEEEES6_ED2Ev, symObjAddr: 0x7784, symBinAddr: 0x1000083D8, symSize: 0x74 }
  - { offsetInCU: 0x196F7, offset: 0x196F7, size: 0x8, addend: 0x0, symName: __ZNSt3__112__value_typeINS_12basic_stringIcNS_11char_traitsIcEENS_9allocatorIcEEEES6_E11__get_valueB7v160006Ev, symObjAddr: 0x77F8, symBinAddr: 0x10000844C, symSize: 0x14 }
  - { offsetInCU: 0x1971D, offset: 0x1971D, size: 0x8, addend: 0x0, symName: __ZNSt3__19allocatorINS_11__tree_nodeINS_12__value_typeINS_12basic_stringIcNS_11char_traitsIcEENS0_IcEEEES7_EEPvEEE10deallocateB7v160006EPSA_m, symObjAddr: 0x780C, symBinAddr: 0x100008460, symSize: 0x80 }
  - { offsetInCU: 0x1975F, offset: 0x1975F, size: 0x8, addend: 0x0, symName: __ZNKSt3__16__treeINS_12__value_typeINS_12basic_stringIcNS_11char_traitsIcEENS_9allocatorIcEEEES7_EENS_19__map_value_compareIS7_S8_NS_4lessIS7_EELb1EEENS5_IS8_EEE10__end_nodeB7v160006Ev, symObjAddr: 0x788C, symBinAddr: 0x1000084E0, symSize: 0x2C }
  - { offsetInCU: 0x19785, offset: 0x19785, size: 0x8, addend: 0x0, symName: __ZNKSt3__117__compressed_pairINS_15__tree_end_nodeIPNS_16__tree_node_baseIPvEEEENS_9allocatorINS_11__tree_nodeINS_12__value_typeINS_12basic_stringIcNS_11char_traitsIcEENS7_IcEEEESE_EES3_EEEEE5firstB7v160006Ev, symObjAddr: 0x78B8, symBinAddr: 0x10000850C, symSize: 0x24 }
  - { offsetInCU: 0x197AB, offset: 0x197AB, size: 0x8, addend: 0x0, symName: __ZNKSt3__122__compressed_pair_elemINS_15__tree_end_nodeIPNS_16__tree_node_baseIPvEEEELi0ELb0EE5__getB7v160006Ev, symObjAddr: 0x78DC, symBinAddr: 0x100008530, symSize: 0x14 }
  - { offsetInCU: 0x197D1, offset: 0x197D1, size: 0x8, addend: 0x0, symName: __ZN8locationC2Ev, symObjAddr: 0x78F0, symBinAddr: 0x100008544, symSize: 0x1E0 }
  - { offsetInCU: 0x197FD, offset: 0x197FD, size: 0x8, addend: 0x0, symName: __ZNSt3__15dequeINS_12basic_stringIcNS_11char_traitsIcEENS_9allocatorIcEEEENS4_IS6_EEEC1B7v160006Ev, symObjAddr: 0x7AD0, symBinAddr: 0x100008724, symSize: 0x2C }
  - { offsetInCU: 0x19827, offset: 0x19827, size: 0x8, addend: 0x0, symName: __ZNSt3__15dequeINS_12basic_stringIcNS_11char_traitsIcEENS_9allocatorIcEEEENS4_IS6_EEED1B7v160006Ev, symObjAddr: 0x7AFC, symBinAddr: 0x100008750, symSize: 0x2C }
  - { offsetInCU: 0x19851, offset: 0x19851, size: 0x8, addend: 0x0, symName: __ZNSt3__15dequeINS_12basic_stringIcNS_11char_traitsIcEENS_9allocatorIcEEEENS4_IS6_EEEC2B7v160006Ev, symObjAddr: 0x7B28, symBinAddr: 0x10000877C, symSize: 0x36C }
  - { offsetInCU: 0x1987C, offset: 0x1987C, size: 0x8, addend: 0x0, symName: __ZNSt3__114__split_bufferIPNS_12basic_stringIcNS_11char_traitsIcEENS_9allocatorIcEEEENS4_IS7_EEEC1Ev, symObjAddr: 0x7E94, symBinAddr: 0x100008AE8, symSize: 0x2C }
  - { offsetInCU: 0x198A8, offset: 0x198A8, size: 0x8, addend: 0x0, symName: __ZNSt3__117__compressed_pairImNS_9allocatorINS_12basic_stringIcNS_11char_traitsIcEENS1_IcEEEEEEEC1B7v160006IiNS_18__default_init_tagEEEOT_OT0_, symObjAddr: 0x7EC0, symBinAddr: 0x100008B14, symSize: 0x3C }
  - { offsetInCU: 0x19900, offset: 0x19900, size: 0x8, addend: 0x0, symName: __ZNSt3__114__split_bufferIPNS_12basic_stringIcNS_11char_traitsIcEENS_9allocatorIcEEEENS4_IS7_EEED1Ev, symObjAddr: 0x7EFC, symBinAddr: 0x100008B50, symSize: 0x2C }
  - { offsetInCU: 0x1992C, offset: 0x1992C, size: 0x8, addend: 0x0, symName: __ZNSt3__114__split_bufferIPNS_12basic_stringIcNS_11char_traitsIcEENS_9allocatorIcEEEENS4_IS7_EEEC2Ev, symObjAddr: 0x7F28, symBinAddr: 0x100008B7C, symSize: 0x30C }
  - { offsetInCU: 0x19959, offset: 0x19959, size: 0x8, addend: 0x0, symName: __ZNSt3__117__compressed_pairIPPNS_12basic_stringIcNS_11char_traitsIcEENS_9allocatorIcEEEENS4_IS7_EEEC1B7v160006IDnNS_18__default_init_tagEEEOT_OT0_, symObjAddr: 0x8234, symBinAddr: 0x100008E88, symSize: 0x3C }
  - { offsetInCU: 0x199B1, offset: 0x199B1, size: 0x8, addend: 0x0, symName: __ZNSt3__117__compressed_pairIPPNS_12basic_stringIcNS_11char_traitsIcEENS_9allocatorIcEEEENS4_IS7_EEEC2B7v160006IDnNS_18__default_init_tagEEEOT_OT0_, symObjAddr: 0x8270, symBinAddr: 0x100008EC4, symSize: 0x40 }
  - { offsetInCU: 0x19A09, offset: 0x19A09, size: 0x8, addend: 0x0, symName: __ZNSt3__122__compressed_pair_elemIPPNS_12basic_stringIcNS_11char_traitsIcEENS_9allocatorIcEEEELi0ELb0EEC2B7v160006IDnvEEOT_, symObjAddr: 0x82B0, symBinAddr: 0x100008F04, symSize: 0x64 }
  - { offsetInCU: 0x19A4B, offset: 0x19A4B, size: 0x8, addend: 0x0, symName: __ZNSt3__122__compressed_pair_elemINS_9allocatorIPNS_12basic_stringIcNS_11char_traitsIcEENS1_IcEEEEEELi1ELb1EEC2B7v160006ENS_18__default_init_tagE, symObjAddr: 0x8314, symBinAddr: 0x100008F68, symSize: 0x2C }
  - { offsetInCU: 0x19A7F, offset: 0x19A7F, size: 0x8, addend: 0x0, symName: __ZNSt3__19allocatorIPNS_12basic_stringIcNS_11char_traitsIcEENS0_IcEEEEEC2B7v160006Ev, symObjAddr: 0x8340, symBinAddr: 0x100008F94, symSize: 0x2C }
  - { offsetInCU: 0x19AA9, offset: 0x19AA9, size: 0x8, addend: 0x0, symName: __ZNSt3__116__non_trivial_ifILb1ENS_9allocatorIPNS_12basic_stringIcNS_11char_traitsIcEENS1_IcEEEEEEEC2B7v160006Ev, symObjAddr: 0x836C, symBinAddr: 0x100008FC0, symSize: 0x14 }
  - { offsetInCU: 0x19AD3, offset: 0x19AD3, size: 0x8, addend: 0x0, symName: __ZNSt3__117__compressed_pairImNS_9allocatorINS_12basic_stringIcNS_11char_traitsIcEENS1_IcEEEEEEEC2B7v160006IiNS_18__default_init_tagEEEOT_OT0_, symObjAddr: 0x8380, symBinAddr: 0x100008FD4, symSize: 0x40 }
  - { offsetInCU: 0x19B2B, offset: 0x19B2B, size: 0x8, addend: 0x0, symName: __ZNSt3__122__compressed_pair_elemINS_9allocatorINS_12basic_stringIcNS_11char_traitsIcEENS1_IcEEEEEELi1ELb1EEC2B7v160006ENS_18__default_init_tagE, symObjAddr: 0x83C0, symBinAddr: 0x100009014, symSize: 0x2C }
  - { offsetInCU: 0x19B5F, offset: 0x19B5F, size: 0x8, addend: 0x0, symName: __ZNSt3__19allocatorINS_12basic_stringIcNS_11char_traitsIcEENS0_IcEEEEEC2B7v160006Ev, symObjAddr: 0x83EC, symBinAddr: 0x100009040, symSize: 0x2C }
  - { offsetInCU: 0x19B89, offset: 0x19B89, size: 0x8, addend: 0x0, symName: __ZNSt3__116__non_trivial_ifILb1ENS_9allocatorINS_12basic_stringIcNS_11char_traitsIcEENS1_IcEEEEEEEC2B7v160006Ev, symObjAddr: 0x8418, symBinAddr: 0x10000906C, symSize: 0x14 }
  - { offsetInCU: 0x19BB3, offset: 0x19BB3, size: 0x8, addend: 0x0, symName: __ZNSt3__114__split_bufferIPNS_12basic_stringIcNS_11char_traitsIcEENS_9allocatorIcEEEENS4_IS7_EEED2Ev, symObjAddr: 0x842C, symBinAddr: 0x100009080, symSize: 0xEC }
  - { offsetInCU: 0x19BDF, offset: 0x19BDF, size: 0x8, addend: 0x0, symName: __ZNSt3__114__split_bufferIPNS_12basic_stringIcNS_11char_traitsIcEENS_9allocatorIcEEEENS4_IS7_EEE5clearB7v160006Ev, symObjAddr: 0x8518, symBinAddr: 0x10000916C, symSize: 0x68 }
  - { offsetInCU: 0x19C05, offset: 0x19C05, size: 0x8, addend: 0x0, symName: __ZNSt3__116allocator_traitsINS_9allocatorIPNS_12basic_stringIcNS_11char_traitsIcEENS1_IcEEEEEEE10deallocateB7v160006ERS8_PS7_m, symObjAddr: 0x8580, symBinAddr: 0x1000091D4, symSize: 0x34 }
  - { offsetInCU: 0x19C47, offset: 0x19C47, size: 0x8, addend: 0x0, symName: __ZNSt3__114__split_bufferIPNS_12basic_stringIcNS_11char_traitsIcEENS_9allocatorIcEEEENS4_IS7_EEE7__allocB7v160006Ev, symObjAddr: 0x85B4, symBinAddr: 0x100009208, symSize: 0x28 }
  - { offsetInCU: 0x19C6D, offset: 0x19C6D, size: 0x8, addend: 0x0, symName: __ZNKSt3__114__split_bufferIPNS_12basic_stringIcNS_11char_traitsIcEENS_9allocatorIcEEEENS4_IS7_EEE8capacityB7v160006Ev, symObjAddr: 0x85DC, symBinAddr: 0x100009230, symSize: 0xBC }
  - { offsetInCU: 0x19C93, offset: 0x19C93, size: 0x8, addend: 0x0, symName: __ZNSt3__114__split_bufferIPNS_12basic_stringIcNS_11char_traitsIcEENS_9allocatorIcEEEENS4_IS7_EEE17__destruct_at_endB7v160006EPS7_, symObjAddr: 0x8698, symBinAddr: 0x1000092EC, symSize: 0x2C }
  - { offsetInCU: 0x19CC7, offset: 0x19CC7, size: 0x8, addend: 0x0, symName: __ZNSt3__114__split_bufferIPNS_12basic_stringIcNS_11char_traitsIcEENS_9allocatorIcEEEENS4_IS7_EEE17__destruct_at_endB7v160006EPS7_NS_17integral_constantIbLb0EEE, symObjAddr: 0x86C4, symBinAddr: 0x100009318, symSize: 0x120 }
  - { offsetInCU: 0x19D07, offset: 0x19D07, size: 0x8, addend: 0x0, symName: __ZNSt3__116allocator_traitsINS_9allocatorIPNS_12basic_stringIcNS_11char_traitsIcEENS1_IcEEEEEEE7destroyB7v160006IS7_vEEvRS8_PT_, symObjAddr: 0x87E4, symBinAddr: 0x100009438, symSize: 0x2C }
  - { offsetInCU: 0x19D44, offset: 0x19D44, size: 0x8, addend: 0x0, symName: __ZNSt3__19allocatorIPNS_12basic_stringIcNS_11char_traitsIcEENS0_IcEEEEE7destroyB7v160006EPS6_, symObjAddr: 0x8824, symBinAddr: 0x100009478, symSize: 0x14 }
  - { offsetInCU: 0x19D78, offset: 0x19D78, size: 0x8, addend: 0x0, symName: __ZNSt3__19allocatorIPNS_12basic_stringIcNS_11char_traitsIcEENS0_IcEEEEE10deallocateB7v160006EPS6_m, symObjAddr: 0x8838, symBinAddr: 0x10000948C, symSize: 0x7C }
  - { offsetInCU: 0x19DBA, offset: 0x19DBA, size: 0x8, addend: 0x0, symName: __ZNSt3__117__compressed_pairIPPNS_12basic_stringIcNS_11char_traitsIcEENS_9allocatorIcEEEENS4_IS7_EEE6secondB7v160006Ev, symObjAddr: 0x88B4, symBinAddr: 0x100009508, symSize: 0x24 }
  - { offsetInCU: 0x19DE0, offset: 0x19DE0, size: 0x8, addend: 0x0, symName: __ZNSt3__122__compressed_pair_elemINS_9allocatorIPNS_12basic_stringIcNS_11char_traitsIcEENS1_IcEEEEEELi1ELb1EE5__getB7v160006Ev, symObjAddr: 0x88D8, symBinAddr: 0x10000952C, symSize: 0x14 }
  - { offsetInCU: 0x19E06, offset: 0x19E06, size: 0x8, addend: 0x0, symName: __ZNKSt3__114__split_bufferIPNS_12basic_stringIcNS_11char_traitsIcEENS_9allocatorIcEEEENS4_IS7_EEE9__end_capB7v160006Ev, symObjAddr: 0x88EC, symBinAddr: 0x100009540, symSize: 0x28 }
  - { offsetInCU: 0x19E2C, offset: 0x19E2C, size: 0x8, addend: 0x0, symName: __ZNKSt3__117__compressed_pairIPPNS_12basic_stringIcNS_11char_traitsIcEENS_9allocatorIcEEEENS4_IS7_EEE5firstB7v160006Ev, symObjAddr: 0x8914, symBinAddr: 0x100009568, symSize: 0x24 }
  - { offsetInCU: 0x19E52, offset: 0x19E52, size: 0x8, addend: 0x0, symName: __ZNKSt3__122__compressed_pair_elemIPPNS_12basic_stringIcNS_11char_traitsIcEENS_9allocatorIcEEEELi0ELb0EE5__getB7v160006Ev, symObjAddr: 0x8938, symBinAddr: 0x10000958C, symSize: 0x14 }
  - { offsetInCU: 0x19E78, offset: 0x19E78, size: 0x8, addend: 0x0, symName: __ZNSt3__15dequeINS_12basic_stringIcNS_11char_traitsIcEENS_9allocatorIcEEEENS4_IS6_EEED2B7v160006Ev, symObjAddr: 0x894C, symBinAddr: 0x1000095A0, symSize: 0xE8 }
  - { offsetInCU: 0x19ECE, offset: 0x19ECE, size: 0x8, addend: 0x0, symName: __ZNSt3__114__split_bufferIPNS_12basic_stringIcNS_11char_traitsIcEENS_9allocatorIcEEEENS4_IS7_EEE5beginB7v160006Ev, symObjAddr: 0x8A34, symBinAddr: 0x100009688, symSize: 0x64 }
  - { offsetInCU: 0x19EF4, offset: 0x19EF4, size: 0x8, addend: 0x0, symName: __ZNSt3__114__split_bufferIPNS_12basic_stringIcNS_11char_traitsIcEENS_9allocatorIcEEEENS4_IS7_EEE3endB7v160006Ev, symObjAddr: 0x8A98, symBinAddr: 0x1000096EC, symSize: 0x64 }
  - { offsetInCU: 0x19F1A, offset: 0x19F1A, size: 0x8, addend: 0x0, symName: __ZNSt3__116allocator_traitsINS_9allocatorINS_12basic_stringIcNS_11char_traitsIcEENS1_IcEEEEEEE10deallocateB7v160006ERS7_PS6_m, symObjAddr: 0x8AFC, symBinAddr: 0x100009750, symSize: 0x34 }
  - { offsetInCU: 0x19F5C, offset: 0x19F5C, size: 0x8, addend: 0x0, symName: __ZNSt3__15dequeINS_12basic_stringIcNS_11char_traitsIcEENS_9allocatorIcEEEENS4_IS6_EEE7__allocB7v160006Ev, symObjAddr: 0x8B30, symBinAddr: 0x100009784, symSize: 0x28 }
  - { offsetInCU: 0x19F82, offset: 0x19F82, size: 0x8, addend: 0x0, symName: __ZNSt3__19allocatorINS_12basic_stringIcNS_11char_traitsIcEENS0_IcEEEEE10deallocateB7v160006EPS5_m, symObjAddr: 0x8B58, symBinAddr: 0x1000097AC, symSize: 0x80 }
  - { offsetInCU: 0x19FC4, offset: 0x19FC4, size: 0x8, addend: 0x0, symName: __ZNSt3__117__compressed_pairImNS_9allocatorINS_12basic_stringIcNS_11char_traitsIcEENS1_IcEEEEEEE6secondB7v160006Ev, symObjAddr: 0x8BD8, symBinAddr: 0x10000982C, symSize: 0x24 }
  - { offsetInCU: 0x19FEA, offset: 0x19FEA, size: 0x8, addend: 0x0, symName: __ZNSt3__122__compressed_pair_elemINS_9allocatorINS_12basic_stringIcNS_11char_traitsIcEENS1_IcEEEEEELi1ELb1EE5__getB7v160006Ev, symObjAddr: 0x8BFC, symBinAddr: 0x100009850, symSize: 0x14 }
  - { offsetInCU: 0x1A010, offset: 0x1A010, size: 0x8, addend: 0x0, symName: __ZNSt3__118basic_stringstreamIcNS_11char_traitsIcEENS_9allocatorIcEEED2Ev, symObjAddr: 0x8C10, symBinAddr: 0x100009864, symSize: 0x258 }
  - { offsetInCU: 0x1A04A, offset: 0x1A04A, size: 0x8, addend: 0x0, symName: __ZThn16_NSt3__118basic_stringstreamIcNS_11char_traitsIcEENS_9allocatorIcEEED1Ev, symObjAddr: 0x8E68, symBinAddr: 0x100009ABC, symSize: 0x1C }
  - { offsetInCU: 0x1A061, offset: 0x1A061, size: 0x8, addend: 0x0, symName: __ZTv0_n24_NSt3__118basic_stringstreamIcNS_11char_traitsIcEENS_9allocatorIcEEED1Ev, symObjAddr: 0x8E84, symBinAddr: 0x100009AD8, symSize: 0xB0 }
  - { offsetInCU: 0x1A07D, offset: 0x1A07D, size: 0x8, addend: 0x0, symName: __ZNSt3__115basic_stringbufIcNS_11char_traitsIcEENS_9allocatorIcEEED1Ev, symObjAddr: 0x8F34, symBinAddr: 0x100009B88, symSize: 0x2C }
  - { offsetInCU: 0x1A0AA, offset: 0x1A0AA, size: 0x8, addend: 0x0, symName: __ZNSt3__115basic_stringbufIcNS_11char_traitsIcEENS_9allocatorIcEEED2Ev, symObjAddr: 0x8F60, symBinAddr: 0x100009BB4, symSize: 0xC4 }
  - { offsetInCU: 0x1A0D7, offset: 0x1A0D7, size: 0x8, addend: 0x0, symName: __ZN8locationD2Ev, symObjAddr: 0x9024, symBinAddr: 0x100009C78, symSize: 0x1DC }
  - { offsetInCU: 0x1A103, offset: 0x1A103, size: 0x8, addend: 0x0, symName: __ZN6serverD2Ev, symObjAddr: 0x9200, symBinAddr: 0x100009E54, symSize: 0x140 }
  - { offsetInCU: 0x1A12F, offset: 0x1A12F, size: 0x8, addend: 0x0, symName: __ZNSt3__15dequeI8locationNS_9allocatorIS1_EEED1B7v160006Ev, symObjAddr: 0x9340, symBinAddr: 0x100009F94, symSize: 0x2C }
  - { offsetInCU: 0x1A159, offset: 0x1A159, size: 0x8, addend: 0x0, symName: __ZNSt3__15dequeI8locationNS_9allocatorIS1_EEED2B7v160006Ev, symObjAddr: 0x936C, symBinAddr: 0x100009FC0, symSize: 0xE8 }
  - { offsetInCU: 0x1A1AF, offset: 0x1A1AF, size: 0x8, addend: 0x0, symName: __ZNSt3__114__split_bufferIP8locationNS_9allocatorIS2_EEE5beginB7v160006Ev, symObjAddr: 0x9454, symBinAddr: 0x10000A0A8, symSize: 0x64 }
  - { offsetInCU: 0x1A1D5, offset: 0x1A1D5, size: 0x8, addend: 0x0, symName: __ZNSt3__114__split_bufferIP8locationNS_9allocatorIS2_EEE3endB7v160006Ev, symObjAddr: 0x94B8, symBinAddr: 0x10000A10C, symSize: 0x64 }
  - { offsetInCU: 0x1A1FB, offset: 0x1A1FB, size: 0x8, addend: 0x0, symName: __ZNSt3__116allocator_traitsINS_9allocatorI8locationEEE10deallocateB7v160006ERS3_PS2_m, symObjAddr: 0x951C, symBinAddr: 0x10000A170, symSize: 0x34 }
  - { offsetInCU: 0x1A23D, offset: 0x1A23D, size: 0x8, addend: 0x0, symName: __ZNSt3__15dequeI8locationNS_9allocatorIS1_EEE7__allocB7v160006Ev, symObjAddr: 0x9550, symBinAddr: 0x10000A1A4, symSize: 0x28 }
  - { offsetInCU: 0x1A263, offset: 0x1A263, size: 0x8, addend: 0x0, symName: __ZNSt3__19allocatorI8locationE10deallocateB7v160006EPS1_m, symObjAddr: 0x9578, symBinAddr: 0x10000A1CC, symSize: 0x80 }
  - { offsetInCU: 0x1A2A5, offset: 0x1A2A5, size: 0x8, addend: 0x0, symName: __ZNSt3__117__compressed_pairImNS_9allocatorI8locationEEE6secondB7v160006Ev, symObjAddr: 0x95F8, symBinAddr: 0x10000A24C, symSize: 0x24 }
  - { offsetInCU: 0x1A2CB, offset: 0x1A2CB, size: 0x8, addend: 0x0, symName: __ZNSt3__122__compressed_pair_elemINS_9allocatorI8locationEELi1ELb1EE5__getB7v160006Ev, symObjAddr: 0x961C, symBinAddr: 0x10000A270, symSize: 0x14 }
  - { offsetInCU: 0x1A2F1, offset: 0x1A2F1, size: 0x8, addend: 0x0, symName: __ZNSt3__113basic_fstreamIcNS_11char_traitsIcEEED2Ev, symObjAddr: 0x9630, symBinAddr: 0x10000A284, symSize: 0x258 }
  - { offsetInCU: 0x1A32A, offset: 0x1A32A, size: 0x8, addend: 0x0, symName: __ZThn16_NSt3__113basic_fstreamIcNS_11char_traitsIcEEED1Ev, symObjAddr: 0x9888, symBinAddr: 0x10000A4DC, symSize: 0x1C }
  - { offsetInCU: 0x1A340, offset: 0x1A340, size: 0x8, addend: 0x0, symName: __ZTv0_n24_NSt3__113basic_fstreamIcNS_11char_traitsIcEEED1Ev, symObjAddr: 0x98A4, symBinAddr: 0x10000A4F8, symSize: 0xB0 }
  - { offsetInCU: 0x1A356, offset: 0x1A356, size: 0x8, addend: 0x0, symName: __ZNSt3__113basic_fstreamIcNS_11char_traitsIcEEED0Ev, symObjAddr: 0x9954, symBinAddr: 0x10000A5A8, symSize: 0x58 }
  - { offsetInCU: 0x1A382, offset: 0x1A382, size: 0x8, addend: 0x0, symName: __ZThn16_NSt3__113basic_fstreamIcNS_11char_traitsIcEEED0Ev, symObjAddr: 0x99AC, symBinAddr: 0x10000A600, symSize: 0x18 }
  - { offsetInCU: 0x1A398, offset: 0x1A398, size: 0x8, addend: 0x0, symName: __ZTv0_n24_NSt3__113basic_fstreamIcNS_11char_traitsIcEEED0Ev, symObjAddr: 0x99C4, symBinAddr: 0x10000A618, symSize: 0xA8 }
  - { offsetInCU: 0x1A3AE, offset: 0x1A3AE, size: 0x8, addend: 0x0, symName: __ZN5confiC2Ev, symObjAddr: 0x9A6C, symBinAddr: 0x10000A6C0, symSize: 0x2C }
  - { offsetInCU: 0x1A3DA, offset: 0x1A3DA, size: 0x8, addend: 0x0, symName: __ZNSt3__15dequeI6serverNS_9allocatorIS1_EEEC1B7v160006Ev, symObjAddr: 0x9A98, symBinAddr: 0x10000A6EC, symSize: 0x2C }
  - { offsetInCU: 0x1A404, offset: 0x1A404, size: 0x8, addend: 0x0, symName: __ZNSt3__15dequeI6serverNS_9allocatorIS1_EEEC2B7v160006Ev, symObjAddr: 0x9AC4, symBinAddr: 0x10000A718, symSize: 0x36C }
  - { offsetInCU: 0x1A42F, offset: 0x1A42F, size: 0x8, addend: 0x0, symName: __ZNSt3__114__split_bufferIP6serverNS_9allocatorIS2_EEEC1Ev, symObjAddr: 0x9E30, symBinAddr: 0x10000AA84, symSize: 0x2C }
  - { offsetInCU: 0x1A45B, offset: 0x1A45B, size: 0x8, addend: 0x0, symName: __ZNSt3__117__compressed_pairImNS_9allocatorI6serverEEEC1B7v160006IiNS_18__default_init_tagEEEOT_OT0_, symObjAddr: 0x9E5C, symBinAddr: 0x10000AAB0, symSize: 0x3C }
  - { offsetInCU: 0x1A4B3, offset: 0x1A4B3, size: 0x8, addend: 0x0, symName: __ZNSt3__114__split_bufferIP6serverNS_9allocatorIS2_EEED1Ev, symObjAddr: 0x9E98, symBinAddr: 0x10000AAEC, symSize: 0x2C }
  - { offsetInCU: 0x1A4DF, offset: 0x1A4DF, size: 0x8, addend: 0x0, symName: __ZNSt3__114__split_bufferIP6serverNS_9allocatorIS2_EEEC2Ev, symObjAddr: 0x9EC4, symBinAddr: 0x10000AB18, symSize: 0x30C }
  - { offsetInCU: 0x1A50C, offset: 0x1A50C, size: 0x8, addend: 0x0, symName: __ZNSt3__117__compressed_pairIPP6serverNS_9allocatorIS2_EEEC1B7v160006IDnNS_18__default_init_tagEEEOT_OT0_, symObjAddr: 0xA1D0, symBinAddr: 0x10000AE24, symSize: 0x3C }
  - { offsetInCU: 0x1A564, offset: 0x1A564, size: 0x8, addend: 0x0, symName: __ZNSt3__117__compressed_pairIPP6serverNS_9allocatorIS2_EEEC2B7v160006IDnNS_18__default_init_tagEEEOT_OT0_, symObjAddr: 0xA20C, symBinAddr: 0x10000AE60, symSize: 0x40 }
  - { offsetInCU: 0x1A5BC, offset: 0x1A5BC, size: 0x8, addend: 0x0, symName: __ZNSt3__122__compressed_pair_elemIPP6serverLi0ELb0EEC2B7v160006IDnvEEOT_, symObjAddr: 0xA24C, symBinAddr: 0x10000AEA0, symSize: 0x64 }
  - { offsetInCU: 0x1A5FE, offset: 0x1A5FE, size: 0x8, addend: 0x0, symName: __ZNSt3__122__compressed_pair_elemINS_9allocatorIP6serverEELi1ELb1EEC2B7v160006ENS_18__default_init_tagE, symObjAddr: 0xA2B0, symBinAddr: 0x10000AF04, symSize: 0x2C }
  - { offsetInCU: 0x1A632, offset: 0x1A632, size: 0x8, addend: 0x0, symName: __ZNSt3__19allocatorIP6serverEC2B7v160006Ev, symObjAddr: 0xA2DC, symBinAddr: 0x10000AF30, symSize: 0x2C }
  - { offsetInCU: 0x1A65C, offset: 0x1A65C, size: 0x8, addend: 0x0, symName: __ZNSt3__116__non_trivial_ifILb1ENS_9allocatorIP6serverEEEC2B7v160006Ev, symObjAddr: 0xA308, symBinAddr: 0x10000AF5C, symSize: 0x14 }
  - { offsetInCU: 0x1A686, offset: 0x1A686, size: 0x8, addend: 0x0, symName: __ZNSt3__117__compressed_pairImNS_9allocatorI6serverEEEC2B7v160006IiNS_18__default_init_tagEEEOT_OT0_, symObjAddr: 0xA31C, symBinAddr: 0x10000AF70, symSize: 0x40 }
  - { offsetInCU: 0x1A6DE, offset: 0x1A6DE, size: 0x8, addend: 0x0, symName: __ZNSt3__122__compressed_pair_elemINS_9allocatorI6serverEELi1ELb1EEC2B7v160006ENS_18__default_init_tagE, symObjAddr: 0xA35C, symBinAddr: 0x10000AFB0, symSize: 0x2C }
  - { offsetInCU: 0x1A712, offset: 0x1A712, size: 0x8, addend: 0x0, symName: __ZNSt3__19allocatorI6serverEC2B7v160006Ev, symObjAddr: 0xA388, symBinAddr: 0x10000AFDC, symSize: 0x2C }
  - { offsetInCU: 0x1A73C, offset: 0x1A73C, size: 0x8, addend: 0x0, symName: __ZNSt3__116__non_trivial_ifILb1ENS_9allocatorI6serverEEEC2B7v160006Ev, symObjAddr: 0xA3B4, symBinAddr: 0x10000B008, symSize: 0x14 }
  - { offsetInCU: 0x1A766, offset: 0x1A766, size: 0x8, addend: 0x0, symName: __ZNSt3__114__split_bufferIP6serverNS_9allocatorIS2_EEED2Ev, symObjAddr: 0xA3C8, symBinAddr: 0x10000B01C, symSize: 0xEC }
  - { offsetInCU: 0x1A792, offset: 0x1A792, size: 0x8, addend: 0x0, symName: __ZNSt3__114__split_bufferIP6serverNS_9allocatorIS2_EEE5clearB7v160006Ev, symObjAddr: 0xA4B4, symBinAddr: 0x10000B108, symSize: 0x68 }
  - { offsetInCU: 0x1A7B8, offset: 0x1A7B8, size: 0x8, addend: 0x0, symName: __ZNSt3__116allocator_traitsINS_9allocatorIP6serverEEE10deallocateB7v160006ERS4_PS3_m, symObjAddr: 0xA51C, symBinAddr: 0x10000B170, symSize: 0x34 }
  - { offsetInCU: 0x1A7FA, offset: 0x1A7FA, size: 0x8, addend: 0x0, symName: __ZNSt3__114__split_bufferIP6serverNS_9allocatorIS2_EEE7__allocB7v160006Ev, symObjAddr: 0xA550, symBinAddr: 0x10000B1A4, symSize: 0x28 }
  - { offsetInCU: 0x1A820, offset: 0x1A820, size: 0x8, addend: 0x0, symName: __ZNKSt3__114__split_bufferIP6serverNS_9allocatorIS2_EEE8capacityB7v160006Ev, symObjAddr: 0xA578, symBinAddr: 0x10000B1CC, symSize: 0xBC }
  - { offsetInCU: 0x1A846, offset: 0x1A846, size: 0x8, addend: 0x0, symName: __ZNSt3__114__split_bufferIP6serverNS_9allocatorIS2_EEE17__destruct_at_endB7v160006EPS2_, symObjAddr: 0xA634, symBinAddr: 0x10000B288, symSize: 0x2C }
  - { offsetInCU: 0x1A87A, offset: 0x1A87A, size: 0x8, addend: 0x0, symName: __ZNSt3__114__split_bufferIP6serverNS_9allocatorIS2_EEE17__destruct_at_endB7v160006EPS2_NS_17integral_constantIbLb0EEE, symObjAddr: 0xA660, symBinAddr: 0x10000B2B4, symSize: 0x120 }
  - { offsetInCU: 0x1A8BA, offset: 0x1A8BA, size: 0x8, addend: 0x0, symName: __ZNSt3__116allocator_traitsINS_9allocatorIP6serverEEE7destroyB7v160006IS3_vEEvRS4_PT_, symObjAddr: 0xA780, symBinAddr: 0x10000B3D4, symSize: 0x2C }
  - { offsetInCU: 0x1A8F7, offset: 0x1A8F7, size: 0x8, addend: 0x0, symName: __ZNSt3__19allocatorIP6serverE7destroyB7v160006EPS2_, symObjAddr: 0xA7C0, symBinAddr: 0x10000B414, symSize: 0x14 }
  - { offsetInCU: 0x1A92B, offset: 0x1A92B, size: 0x8, addend: 0x0, symName: __ZNSt3__19allocatorIP6serverE10deallocateB7v160006EPS2_m, symObjAddr: 0xA7D4, symBinAddr: 0x10000B428, symSize: 0x7C }
  - { offsetInCU: 0x1A96D, offset: 0x1A96D, size: 0x8, addend: 0x0, symName: __ZNSt3__117__compressed_pairIPP6serverNS_9allocatorIS2_EEE6secondB7v160006Ev, symObjAddr: 0xA850, symBinAddr: 0x10000B4A4, symSize: 0x24 }
  - { offsetInCU: 0x1A993, offset: 0x1A993, size: 0x8, addend: 0x0, symName: __ZNSt3__122__compressed_pair_elemINS_9allocatorIP6serverEELi1ELb1EE5__getB7v160006Ev, symObjAddr: 0xA874, symBinAddr: 0x10000B4C8, symSize: 0x14 }
  - { offsetInCU: 0x1A9B9, offset: 0x1A9B9, size: 0x8, addend: 0x0, symName: __ZNKSt3__114__split_bufferIP6serverNS_9allocatorIS2_EEE9__end_capB7v160006Ev, symObjAddr: 0xA888, symBinAddr: 0x10000B4DC, symSize: 0x28 }
  - { offsetInCU: 0x1A9DF, offset: 0x1A9DF, size: 0x8, addend: 0x0, symName: __ZNKSt3__117__compressed_pairIPP6serverNS_9allocatorIS2_EEE5firstB7v160006Ev, symObjAddr: 0xA8B0, symBinAddr: 0x10000B504, symSize: 0x24 }
  - { offsetInCU: 0x1AA05, offset: 0x1AA05, size: 0x8, addend: 0x0, symName: __ZNKSt3__122__compressed_pair_elemIPP6serverLi0ELb0EE5__getB7v160006Ev, symObjAddr: 0xA8D4, symBinAddr: 0x10000B528, symSize: 0x14 }
  - { offsetInCU: 0x1AA2B, offset: 0x1AA2B, size: 0x8, addend: 0x0, symName: __ZN5confiD2Ev, symObjAddr: 0xA8E8, symBinAddr: 0x10000B53C, symSize: 0x2C }
  - { offsetInCU: 0x1AA57, offset: 0x1AA57, size: 0x8, addend: 0x0, symName: __ZNSt3__15dequeI6serverNS_9allocatorIS1_EEED1B7v160006Ev, symObjAddr: 0xA914, symBinAddr: 0x10000B568, symSize: 0x2C }
  - { offsetInCU: 0x1AA81, offset: 0x1AA81, size: 0x8, addend: 0x0, symName: __ZNSt3__15dequeI6serverNS_9allocatorIS1_EEED2B7v160006Ev, symObjAddr: 0xA940, symBinAddr: 0x10000B594, symSize: 0xE8 }
  - { offsetInCU: 0x1AAD7, offset: 0x1AAD7, size: 0x8, addend: 0x0, symName: __ZNSt3__15dequeI6serverNS_9allocatorIS1_EEE5clearEv, symObjAddr: 0xAA28, symBinAddr: 0x10000B67C, symSize: 0x514 }
  - { offsetInCU: 0x1AB44, offset: 0x1AB44, size: 0x8, addend: 0x0, symName: __ZNSt3__114__split_bufferIP6serverNS_9allocatorIS2_EEE5beginB7v160006Ev, symObjAddr: 0xAF3C, symBinAddr: 0x10000BB90, symSize: 0x64 }
  - { offsetInCU: 0x1AB6A, offset: 0x1AB6A, size: 0x8, addend: 0x0, symName: __ZNSt3__114__split_bufferIP6serverNS_9allocatorIS2_EEE3endB7v160006Ev, symObjAddr: 0xAFA0, symBinAddr: 0x10000BBF4, symSize: 0x64 }
  - { offsetInCU: 0x1AB90, offset: 0x1AB90, size: 0x8, addend: 0x0, symName: __ZNSt3__116allocator_traitsINS_9allocatorI6serverEEE10deallocateB7v160006ERS3_PS2_m, symObjAddr: 0xB004, symBinAddr: 0x10000BC58, symSize: 0x34 }
  - { offsetInCU: 0x1ABD2, offset: 0x1ABD2, size: 0x8, addend: 0x0, symName: __ZNSt3__15dequeI6serverNS_9allocatorIS1_EEE7__allocB7v160006Ev, symObjAddr: 0xB038, symBinAddr: 0x10000BC8C, symSize: 0x28 }
  - { offsetInCU: 0x1ABF8, offset: 0x1ABF8, size: 0x8, addend: 0x0, symName: __ZNSt3__15dequeI6serverNS_9allocatorIS1_EEE5beginB7v160006Ev, symObjAddr: 0xB060, symBinAddr: 0x10000BCB4, symSize: 0x360 }
  - { offsetInCU: 0x1AC2F, offset: 0x1AC2F, size: 0x8, addend: 0x0, symName: __ZNSt3__15dequeI6serverNS_9allocatorIS1_EEE3endB7v160006Ev, symObjAddr: 0xB3C0, symBinAddr: 0x10000C014, symSize: 0x308 }
  - { offsetInCU: 0x1AC76, offset: 0x1AC76, size: 0x8, addend: 0x0, symName: __ZNSt3__116allocator_traitsINS_9allocatorI6serverEEE7destroyB7v160006IS2_vEEvRS3_PT_, symObjAddr: 0xB6FC, symBinAddr: 0x10000C350, symSize: 0x2C }
  - { offsetInCU: 0x1ACB3, offset: 0x1ACB3, size: 0x8, addend: 0x0, symName: __ZNKSt3__116__deque_iteratorI6serverPS1_RS1_PS2_lLl23EEdeB7v160006Ev, symObjAddr: 0xB728, symBinAddr: 0x10000C37C, symSize: 0x64 }
  - { offsetInCU: 0x1ACD9, offset: 0x1ACD9, size: 0x8, addend: 0x0, symName: __ZNSt3__116__deque_iteratorI6serverPS1_RS1_PS2_lLl23EEppB7v160006Ev, symObjAddr: 0xB78C, symBinAddr: 0x10000C3E0, symSize: 0x1F8 }
  - { offsetInCU: 0x1ACFF, offset: 0x1ACFF, size: 0x8, addend: 0x0, symName: __ZNSt3__15dequeI6serverNS_9allocatorIS1_EEE6__sizeB7v160006Ev, symObjAddr: 0xB984, symBinAddr: 0x10000C5D8, symSize: 0x28 }
  - { offsetInCU: 0x1AD25, offset: 0x1AD25, size: 0x8, addend: 0x0, symName: __ZNKSt3__114__split_bufferIP6serverNS_9allocatorIS2_EEE4sizeB7v160006Ev, symObjAddr: 0xB9AC, symBinAddr: 0x10000C600, symSize: 0xB4 }
  - { offsetInCU: 0x1AD4B, offset: 0x1AD4B, size: 0x8, addend: 0x0, symName: __ZNSt3__114__split_bufferIP6serverNS_9allocatorIS2_EEE5frontB7v160006Ev, symObjAddr: 0xBA60, symBinAddr: 0x10000C6B4, symSize: 0x64 }
  - { offsetInCU: 0x1AD71, offset: 0x1AD71, size: 0x8, addend: 0x0, symName: __ZNSt3__114__split_bufferIP6serverNS_9allocatorIS2_EEE9pop_frontB7v160006Ev, symObjAddr: 0xBAC4, symBinAddr: 0x10000C718, symSize: 0x6C }
  - { offsetInCU: 0x1AD97, offset: 0x1AD97, size: 0x8, addend: 0x0, symName: __ZNKSt3__114__split_bufferIP6serverNS_9allocatorIS2_EEE5emptyB7v160006Ev, symObjAddr: 0xBB30, symBinAddr: 0x10000C784, symSize: 0xB4 }
  - { offsetInCU: 0x1ADBD, offset: 0x1ADBD, size: 0x8, addend: 0x0, symName: __ZNSt3__116__deque_iteratorI6serverPS1_RS1_PS2_lLl23EEC1B7v160006ES4_S2_, symObjAddr: 0xBBE4, symBinAddr: 0x10000C838, symSize: 0x3C }
  - { offsetInCU: 0x1AE05, offset: 0x1AE05, size: 0x8, addend: 0x0, symName: __ZNSt3__116__deque_iteratorI6serverPS1_RS1_PS2_lLl23EEC2B7v160006ES4_S2_, symObjAddr: 0xBC20, symBinAddr: 0x10000C874, symSize: 0xBC }
  - { offsetInCU: 0x1AE4D, offset: 0x1AE4D, size: 0x8, addend: 0x0, symName: __ZNKSt3__15dequeI6serverNS_9allocatorIS1_EEE4sizeB7v160006Ev, symObjAddr: 0xBCDC, symBinAddr: 0x10000C930, symSize: 0x6C }
  - { offsetInCU: 0x1AE73, offset: 0x1AE73, size: 0x8, addend: 0x0, symName: __ZNKSt3__15dequeI6serverNS_9allocatorIS1_EEE6__sizeB7v160006Ev, symObjAddr: 0xBD48, symBinAddr: 0x10000C99C, symSize: 0x28 }
  - { offsetInCU: 0x1AE99, offset: 0x1AE99, size: 0x8, addend: 0x0, symName: __ZNKSt3__117__compressed_pairImNS_9allocatorI6serverEEE5firstB7v160006Ev, symObjAddr: 0xBD70, symBinAddr: 0x10000C9C4, symSize: 0x24 }
  - { offsetInCU: 0x1AEBF, offset: 0x1AEBF, size: 0x8, addend: 0x0, symName: __ZNKSt3__122__compressed_pair_elemImLi0ELb0EE5__getB7v160006Ev, symObjAddr: 0xBD94, symBinAddr: 0x10000C9E8, symSize: 0x14 }
  - { offsetInCU: 0x1AEE5, offset: 0x1AEE5, size: 0x8, addend: 0x0, symName: __ZNSt3__19allocatorI6serverE7destroyB7v160006EPS1_, symObjAddr: 0xBE68, symBinAddr: 0x10000CABC, symSize: 0x28 }
  - { offsetInCU: 0x1AF19, offset: 0x1AF19, size: 0x8, addend: 0x0, symName: __ZNSt3__117__compressed_pairImNS_9allocatorI6serverEEE5firstB7v160006Ev, symObjAddr: 0xBE90, symBinAddr: 0x10000CAE4, symSize: 0x24 }
  - { offsetInCU: 0x1AF3F, offset: 0x1AF3F, size: 0x8, addend: 0x0, symName: __ZNSt3__122__compressed_pair_elemImLi0ELb0EE5__getB7v160006Ev, symObjAddr: 0xBEB4, symBinAddr: 0x10000CB08, symSize: 0x14 }
  - { offsetInCU: 0x1AF65, offset: 0x1AF65, size: 0x8, addend: 0x0, symName: __ZNSt3__114__split_bufferIP6serverNS_9allocatorIS2_EEE19__destruct_at_beginB7v160006EPS2_, symObjAddr: 0xBEC8, symBinAddr: 0x10000CB1C, symSize: 0x2C }
  - { offsetInCU: 0x1AF99, offset: 0x1AF99, size: 0x8, addend: 0x0, symName: __ZNSt3__114__split_bufferIP6serverNS_9allocatorIS2_EEE19__destruct_at_beginEPS2_NS_17integral_constantIbLb1EEE, symObjAddr: 0xBEF4, symBinAddr: 0x10000CB48, symSize: 0x74 }
  - { offsetInCU: 0x1AFD9, offset: 0x1AFD9, size: 0x8, addend: 0x0, symName: __ZNSt3__19allocatorI6serverE10deallocateB7v160006EPS1_m, symObjAddr: 0xBF68, symBinAddr: 0x10000CBBC, symSize: 0x80 }
  - { offsetInCU: 0x1B01B, offset: 0x1B01B, size: 0x8, addend: 0x0, symName: __ZNSt3__117__compressed_pairImNS_9allocatorI6serverEEE6secondB7v160006Ev, symObjAddr: 0xBFE8, symBinAddr: 0x10000CC3C, symSize: 0x24 }
  - { offsetInCU: 0x1B041, offset: 0x1B041, size: 0x8, addend: 0x0, symName: __ZNSt3__122__compressed_pair_elemINS_9allocatorI6serverEELi1ELb1EE5__getB7v160006Ev, symObjAddr: 0xC00C, symBinAddr: 0x10000CC60, symSize: 0x14 }
  - { offsetInCU: 0x1B067, offset: 0x1B067, size: 0x8, addend: 0x0, symName: __ZNSt3__111char_traitsIcE6lengthEPKc, symObjAddr: 0xC76C, symBinAddr: 0x10000D3C0, symSize: 0x54 }
  - { offsetInCU: 0x1B0A8, offset: 0x1B0A8, size: 0x8, addend: 0x0, symName: __ZNKSt3__113basic_ostreamIcNS_11char_traitsIcEEE6sentrycvbB7v160006Ev, symObjAddr: 0xC7C0, symBinAddr: 0x10000D414, symSize: 0x88 }
  - { offsetInCU: 0x1B0CE, offset: 0x1B0CE, size: 0x8, addend: 0x0, symName: __ZNSt3__119ostreambuf_iteratorIcNS_11char_traitsIcEEEC1B7v160006ERNS_13basic_ostreamIcS2_EE, symObjAddr: 0xCFBC, symBinAddr: 0x10000DC10, symSize: 0x34 }
  - { offsetInCU: 0x1B106, offset: 0x1B106, size: 0x8, addend: 0x0, symName: __ZNKSt3__18ios_base5flagsB7v160006Ev, symObjAddr: 0xCFF0, symBinAddr: 0x10000DC44, symSize: 0x8C }
  - { offsetInCU: 0x1B12E, offset: 0x1B12E, size: 0x8, addend: 0x0, symName: __ZNKSt3__19basic_iosIcNS_11char_traitsIcEEE4fillB7v160006Ev, symObjAddr: 0xD07C, symBinAddr: 0x10000DCD0, symSize: 0x198 }
  - { offsetInCU: 0x1B156, offset: 0x1B156, size: 0x8, addend: 0x0, symName: __ZNKSt3__119ostreambuf_iteratorIcNS_11char_traitsIcEEE6failedB7v160006Ev, symObjAddr: 0xD214, symBinAddr: 0x10000DE68, symSize: 0x6C }
  - { offsetInCU: 0x1B17C, offset: 0x1B17C, size: 0x8, addend: 0x0, symName: __ZNSt3__19basic_iosIcNS_11char_traitsIcEEE8setstateB7v160006Ej, symObjAddr: 0xD280, symBinAddr: 0x10000DED4, symSize: 0x2C }
  - { offsetInCU: 0x1B1B1, offset: 0x1B1B1, size: 0x8, addend: 0x0, symName: __ZNKSt3__18ios_base5widthB7v160006Ev, symObjAddr: 0xD2AC, symBinAddr: 0x10000DF00, symSize: 0x64 }
  - { offsetInCU: 0x1B1D9, offset: 0x1B1D9, size: 0x8, addend: 0x0, symName: __ZNSt3__115basic_streambufIcNS_11char_traitsIcEEE5sputnB7v160006EPKcl, symObjAddr: 0xD310, symBinAddr: 0x10000DF64, symSize: 0xC8 }
  - { offsetInCU: 0x1B21B, offset: 0x1B21B, size: 0x8, addend: 0x0, symName: __ZNSt3__112basic_stringIcNS_11char_traitsIcEENS_9allocatorIcEEEC1B7v160006Emc, symObjAddr: 0xD3D8, symBinAddr: 0x10000E02C, symSize: 0x3C }
  - { offsetInCU: 0x1B263, offset: 0x1B263, size: 0x8, addend: 0x0, symName: __ZNKSt3__112basic_stringIcNS_11char_traitsIcEENS_9allocatorIcEEE4dataB7v160006Ev, symObjAddr: 0xD414, symBinAddr: 0x10000E068, symSize: 0x28 }
  - { offsetInCU: 0x1B289, offset: 0x1B289, size: 0x8, addend: 0x0, symName: __ZNSt3__18ios_base5widthB7v160006El, symObjAddr: 0xD43C, symBinAddr: 0x10000E090, symSize: 0xB8 }
  - { offsetInCU: 0x1B2CF, offset: 0x1B2CF, size: 0x8, addend: 0x0, symName: __ZNSt3__112basic_stringIcNS_11char_traitsIcEENS_9allocatorIcEEEC2B7v160006Emc, symObjAddr: 0xD4F4, symBinAddr: 0x10000E148, symSize: 0x20C }
  - { offsetInCU: 0x1B31A, offset: 0x1B31A, size: 0x8, addend: 0x0, symName: __ZNSt3__117__compressed_pairINS_12basic_stringIcNS_11char_traitsIcEENS_9allocatorIcEEE5__repES5_EC1B7v160006INS_18__default_init_tagESA_EEOT_OT0_, symObjAddr: 0xD700, symBinAddr: 0x10000E354, symSize: 0x3C }
  - { offsetInCU: 0x1B372, offset: 0x1B372, size: 0x8, addend: 0x0, symName: __ZNSt3__117__compressed_pairINS_12basic_stringIcNS_11char_traitsIcEENS_9allocatorIcEEE5__repES5_EC2B7v160006INS_18__default_init_tagESA_EEOT_OT0_, symObjAddr: 0xD74C, symBinAddr: 0x10000E3A0, symSize: 0x3C }
  - { offsetInCU: 0x1B3CA, offset: 0x1B3CA, size: 0x8, addend: 0x0, symName: __ZNSt3__122__compressed_pair_elemINS_12basic_stringIcNS_11char_traitsIcEENS_9allocatorIcEEE5__repELi0ELb0EEC2B7v160006ENS_18__default_init_tagE, symObjAddr: 0xD788, symBinAddr: 0x10000E3DC, symSize: 0x14 }
  - { offsetInCU: 0x1B3FE, offset: 0x1B3FE, size: 0x8, addend: 0x0, symName: __ZNSt3__122__compressed_pair_elemINS_9allocatorIcEELi1ELb1EEC2B7v160006ENS_18__default_init_tagE, symObjAddr: 0xD79C, symBinAddr: 0x10000E3F0, symSize: 0x2C }
  - { offsetInCU: 0x1B432, offset: 0x1B432, size: 0x8, addend: 0x0, symName: __ZNSt3__19allocatorIcEC2B7v160006Ev, symObjAddr: 0xD7C8, symBinAddr: 0x10000E41C, symSize: 0x2C }
  - { offsetInCU: 0x1B45C, offset: 0x1B45C, size: 0x8, addend: 0x0, symName: __ZNSt3__116__non_trivial_ifILb1ENS_9allocatorIcEEEC2B7v160006Ev, symObjAddr: 0xD7F4, symBinAddr: 0x10000E448, symSize: 0x14 }
  - { offsetInCU: 0x1B486, offset: 0x1B486, size: 0x8, addend: 0x0, symName: __ZNKSt3__112basic_stringIcNS_11char_traitsIcEENS_9allocatorIcEEE13__get_pointerB7v160006Ev, symObjAddr: 0xD81C, symBinAddr: 0x10000E470, symSize: 0x54 }
  - { offsetInCU: 0x1B4AC, offset: 0x1B4AC, size: 0x8, addend: 0x0, symName: __ZNKSt3__112basic_stringIcNS_11char_traitsIcEENS_9allocatorIcEEE9__is_longB7v160006Ev, symObjAddr: 0xD870, symBinAddr: 0x10000E4C4, symSize: 0xE0 }
  - { offsetInCU: 0x1B4D2, offset: 0x1B4D2, size: 0x8, addend: 0x0, symName: __ZNKSt3__112basic_stringIcNS_11char_traitsIcEENS_9allocatorIcEEE18__get_long_pointerB7v160006Ev, symObjAddr: 0xD950, symBinAddr: 0x10000E5A4, symSize: 0x6C }
  - { offsetInCU: 0x1B4F8, offset: 0x1B4F8, size: 0x8, addend: 0x0, symName: __ZNKSt3__112basic_stringIcNS_11char_traitsIcEENS_9allocatorIcEEE19__get_short_pointerB7v160006Ev, symObjAddr: 0xD9BC, symBinAddr: 0x10000E610, symSize: 0x28 }
  - { offsetInCU: 0x1B51E, offset: 0x1B51E, size: 0x8, addend: 0x0, symName: __ZNKSt3__117__compressed_pairINS_12basic_stringIcNS_11char_traitsIcEENS_9allocatorIcEEE5__repES5_E5firstB7v160006Ev, symObjAddr: 0xD9E4, symBinAddr: 0x10000E638, symSize: 0x24 }
  - { offsetInCU: 0x1B544, offset: 0x1B544, size: 0x8, addend: 0x0, symName: __ZNKSt3__122__compressed_pair_elemINS_12basic_stringIcNS_11char_traitsIcEENS_9allocatorIcEEE5__repELi0ELb0EE5__getB7v160006Ev, symObjAddr: 0xDA08, symBinAddr: 0x10000E65C, symSize: 0x14 }
  - { offsetInCU: 0x1B56A, offset: 0x1B56A, size: 0x8, addend: 0x0, symName: __ZNSt3__114pointer_traitsIPKcE10pointer_toB7v160006ERS1_, symObjAddr: 0xDA1C, symBinAddr: 0x10000E670, symSize: 0x14 }
  - { offsetInCU: 0x1B58D, offset: 0x1B58D, size: 0x8, addend: 0x0, symName: __ZNSt3__119ostreambuf_iteratorIcNS_11char_traitsIcEEEC2B7v160006ERNS_13basic_ostreamIcS2_EE, symObjAddr: 0xDA30, symBinAddr: 0x10000E684, symSize: 0x120 }
  - { offsetInCU: 0x1B5C5, offset: 0x1B5C5, size: 0x8, addend: 0x0, symName: __ZNKSt3__19basic_iosIcNS_11char_traitsIcEEE5rdbufB7v160006Ev, symObjAddr: 0xDB50, symBinAddr: 0x10000E7A4, symSize: 0x24 }
  - { offsetInCU: 0x1B5ED, offset: 0x1B5ED, size: 0x8, addend: 0x0, symName: __ZNKSt3__18ios_base5rdbufB7v160006Ev, symObjAddr: 0xDB74, symBinAddr: 0x10000E7C8, symSize: 0x64 }
  - { offsetInCU: 0x1B613, offset: 0x1B613, size: 0x8, addend: 0x0, symName: __ZNSt3__111char_traitsIcE11eq_int_typeEii, symObjAddr: 0xDBD8, symBinAddr: 0x10000E82C, symSize: 0x28 }
  - { offsetInCU: 0x1B644, offset: 0x1B644, size: 0x8, addend: 0x0, symName: __ZNSt3__111char_traitsIcE3eofEv, symObjAddr: 0xDC00, symBinAddr: 0x10000E854, symSize: 0x8 }
  - { offsetInCU: 0x1B658, offset: 0x1B658, size: 0x8, addend: 0x0, symName: __ZNKSt3__19basic_iosIcNS_11char_traitsIcEEE5widenB7v160006Ec, symObjAddr: 0xDC08, symBinAddr: 0x10000E85C, symSize: 0x2B8 }
  - { offsetInCU: 0x1B6BE, offset: 0x1B6BE, size: 0x8, addend: 0x0, symName: __ZNKSt3__15ctypeIcE5widenB7v160006Ec, symObjAddr: 0xDEEC, symBinAddr: 0x10000EB40, symSize: 0xBC }
  - { offsetInCU: 0x1B6F3, offset: 0x1B6F3, size: 0x8, addend: 0x0, symName: __ZNSt3__18ios_base8setstateB7v160006Ej, symObjAddr: 0xDFA8, symBinAddr: 0x10000EBFC, symSize: 0x9C }
  - { offsetInCU: 0x1B72A, offset: 0x1B72A, size: 0x8, addend: 0x0, symName: __ZNKSt3__15dequeINS_12basic_stringIcNS_11char_traitsIcEENS_9allocatorIcEEEENS4_IS6_EEE12__back_spareB7v160006Ev, symObjAddr: 0xE068, symBinAddr: 0x10000ECBC, symSize: 0x90 }
  - { offsetInCU: 0x1B750, offset: 0x1B750, size: 0x8, addend: 0x0, symName: __ZNSt3__15dequeINS_12basic_stringIcNS_11char_traitsIcEENS_9allocatorIcEEEENS4_IS6_EEE19__add_back_capacityEv, symObjAddr: 0xE0F8, symBinAddr: 0x10000ED4C, symSize: 0xA1C }
  - { offsetInCU: 0x1B808, offset: 0x1B808, size: 0x8, addend: 0x0, symName: __ZNSt3__116allocator_traitsINS_9allocatorINS_12basic_stringIcNS_11char_traitsIcEENS1_IcEEEEEEE9constructB7v160006IS6_JRKS6_EvEEvRS7_PT_DpOT0_, symObjAddr: 0xEB14, symBinAddr: 0x10000F768, symSize: 0x34 }
  - { offsetInCU: 0x1B85F, offset: 0x1B85F, size: 0x8, addend: 0x0, symName: __ZNSt3__15dequeINS_12basic_stringIcNS_11char_traitsIcEENS_9allocatorIcEEEENS4_IS6_EEE3endB7v160006Ev, symObjAddr: 0xEB48, symBinAddr: 0x10000F79C, symSize: 0x338 }
  - { offsetInCU: 0x1B8A6, offset: 0x1B8A6, size: 0x8, addend: 0x0, symName: __ZNKSt3__116__deque_iteratorINS_12basic_stringIcNS_11char_traitsIcEENS_9allocatorIcEEEEPS6_RS6_PS7_lLl170EEdeB7v160006Ev, symObjAddr: 0xEE80, symBinAddr: 0x10000FAD4, symSize: 0x64 }
  - { offsetInCU: 0x1B8CC, offset: 0x1B8CC, size: 0x8, addend: 0x0, symName: __ZNSt3__15dequeINS_12basic_stringIcNS_11char_traitsIcEENS_9allocatorIcEEEENS4_IS6_EEE6__sizeB7v160006Ev, symObjAddr: 0xEEE4, symBinAddr: 0x10000FB38, symSize: 0x28 }
  - { offsetInCU: 0x1B8F2, offset: 0x1B8F2, size: 0x8, addend: 0x0, symName: __ZNKSt3__15dequeINS_12basic_stringIcNS_11char_traitsIcEENS_9allocatorIcEEEENS4_IS6_EEE10__capacityB7v160006Ev, symObjAddr: 0xEF0C, symBinAddr: 0x10000FB60, symSize: 0x64 }
  - { offsetInCU: 0x1B918, offset: 0x1B918, size: 0x8, addend: 0x0, symName: __ZNKSt3__15dequeINS_12basic_stringIcNS_11char_traitsIcEENS_9allocatorIcEEEENS4_IS6_EEE4sizeB7v160006Ev, symObjAddr: 0xEF70, symBinAddr: 0x10000FBC4, symSize: 0x6C }
  - { offsetInCU: 0x1B93E, offset: 0x1B93E, size: 0x8, addend: 0x0, symName: __ZNKSt3__114__split_bufferIPNS_12basic_stringIcNS_11char_traitsIcEENS_9allocatorIcEEEENS4_IS7_EEE4sizeB7v160006Ev, symObjAddr: 0xEFDC, symBinAddr: 0x10000FC30, symSize: 0xB4 }
  - { offsetInCU: 0x1B964, offset: 0x1B964, size: 0x8, addend: 0x0, symName: __ZNKSt3__15dequeINS_12basic_stringIcNS_11char_traitsIcEENS_9allocatorIcEEEENS4_IS6_EEE6__sizeB7v160006Ev, symObjAddr: 0xF090, symBinAddr: 0x10000FCE4, symSize: 0x28 }
  - { offsetInCU: 0x1B98A, offset: 0x1B98A, size: 0x8, addend: 0x0, symName: __ZNKSt3__117__compressed_pairImNS_9allocatorINS_12basic_stringIcNS_11char_traitsIcEENS1_IcEEEEEEE5firstB7v160006Ev, symObjAddr: 0xF0B8, symBinAddr: 0x10000FD0C, symSize: 0x24 }
  - { offsetInCU: 0x1B9B0, offset: 0x1B9B0, size: 0x8, addend: 0x0, symName: __ZNKSt3__15dequeINS_12basic_stringIcNS_11char_traitsIcEENS_9allocatorIcEEEENS4_IS6_EEE13__front_spareB7v160006Ev, symObjAddr: 0xF0DC, symBinAddr: 0x10000FD30, symSize: 0x64 }
  - { offsetInCU: 0x1B9D6, offset: 0x1B9D6, size: 0x8, addend: 0x0, symName: __ZNSt3__114__split_bufferIPNS_12basic_stringIcNS_11char_traitsIcEENS_9allocatorIcEEEENS4_IS7_EEE5frontB7v160006Ev, symObjAddr: 0xF140, symBinAddr: 0x10000FD94, symSize: 0x64 }
  - { offsetInCU: 0x1B9FC, offset: 0x1B9FC, size: 0x8, addend: 0x0, symName: __ZNSt3__114__split_bufferIPNS_12basic_stringIcNS_11char_traitsIcEENS_9allocatorIcEEEENS4_IS7_EEE9pop_frontB7v160006Ev, symObjAddr: 0xF1A4, symBinAddr: 0x10000FDF8, symSize: 0x6C }
  - { offsetInCU: 0x1BA22, offset: 0x1BA22, size: 0x8, addend: 0x0, symName: __ZNSt3__114__split_bufferIPNS_12basic_stringIcNS_11char_traitsIcEENS_9allocatorIcEEEENS4_IS7_EEE9push_backB7v160006ERKS7_, symObjAddr: 0xF210, symBinAddr: 0x10000FE64, symSize: 0xA60 }
  - { offsetInCU: 0x1BAA1, offset: 0x1BAA1, size: 0x8, addend: 0x0, symName: __ZNKSt3__114__split_bufferIPNS_12basic_stringIcNS_11char_traitsIcEENS_9allocatorIcEEEENS4_IS7_EEE12__back_spareB7v160006Ev, symObjAddr: 0xFC70, symBinAddr: 0x1000108C4, symSize: 0xC0 }
  - { offsetInCU: 0x1BAC7, offset: 0x1BAC7, size: 0x8, addend: 0x0, symName: __ZNSt3__114__split_bufferIPNS_12basic_stringIcNS_11char_traitsIcEENS_9allocatorIcEEEENS4_IS7_EEE9push_backEOS7_, symObjAddr: 0xFD30, symBinAddr: 0x100010984, symSize: 0xA60 }
  - { offsetInCU: 0x1BB46, offset: 0x1BB46, size: 0x8, addend: 0x0, symName: __ZNSt3__116allocator_traitsINS_9allocatorINS_12basic_stringIcNS_11char_traitsIcEENS1_IcEEEEEEE8allocateB7v160006ERS7_m, symObjAddr: 0x10790, symBinAddr: 0x1000113E4, symSize: 0x2C }
  - { offsetInCU: 0x1BB79, offset: 0x1BB79, size: 0x8, addend: 0x0, symName: __ZNSt3__114__split_bufferIPNS_12basic_stringIcNS_11char_traitsIcEENS_9allocatorIcEEEENS4_IS7_EEE10push_frontEOS7_, symObjAddr: 0x107BC, symBinAddr: 0x100011410, symSize: 0xA64 }
  - { offsetInCU: 0x1BBF8, offset: 0x1BBF8, size: 0x8, addend: 0x0, symName: __ZNSt3__114__split_bufferIPNS_12basic_stringIcNS_11char_traitsIcEENS_9allocatorIcEEEERNS4_IS7_EEEC1EmmS9_, symObjAddr: 0x1124C, symBinAddr: 0x100011EA0, symSize: 0x44 }
  - { offsetInCU: 0x1BC53, offset: 0x1BC53, size: 0x8, addend: 0x0, symName: __ZNSt3__122__allocator_destructorINS_9allocatorINS_12basic_stringIcNS_11char_traitsIcEENS1_IcEEEEEEEC1B7v160006ERS7_m, symObjAddr: 0x11290, symBinAddr: 0x100011EE4, symSize: 0x3C }
  - { offsetInCU: 0x1BD20, offset: 0x1BD20, size: 0x8, addend: 0x0, symName: __ZNSt3__110unique_ptrIPNS_12basic_stringIcNS_11char_traitsIcEENS_9allocatorIcEEEENS_22__allocator_destructorINS4_IS6_EEEEEC1B7v160006ILb1EvEES7_NS_16__dependent_typeINS_27__unique_ptr_deleter_sfinaeISA_EEXT_EE20__good_rval_ref_typeE, symObjAddr: 0x112CC, symBinAddr: 0x100011F20, symSize: 0x3C }
  - { offsetInCU: 0x1BD71, offset: 0x1BD71, size: 0x8, addend: 0x0, symName: __ZNSt3__114__split_bufferIPNS_12basic_stringIcNS_11char_traitsIcEENS_9allocatorIcEEEERNS4_IS7_EEE9push_backEOS7_, symObjAddr: 0x11308, symBinAddr: 0x100011F5C, symSize: 0xA60 }
  - { offsetInCU: 0x1BDF0, offset: 0x1BDF0, size: 0x8, addend: 0x0, symName: __ZNKSt3__110unique_ptrIPNS_12basic_stringIcNS_11char_traitsIcEENS_9allocatorIcEEEENS_22__allocator_destructorINS4_IS6_EEEEE3getB7v160006Ev, symObjAddr: 0x11D68, symBinAddr: 0x1000129BC, symSize: 0x6C }
  - { offsetInCU: 0x1BE16, offset: 0x1BE16, size: 0x8, addend: 0x0, symName: __ZNSt3__110unique_ptrIPNS_12basic_stringIcNS_11char_traitsIcEENS_9allocatorIcEEEENS_22__allocator_destructorINS4_IS6_EEEEE7releaseB7v160006Ev, symObjAddr: 0x11DD4, symBinAddr: 0x100012A28, symSize: 0xB8 }
  - { offsetInCU: 0x1BE4B, offset: 0x1BE4B, size: 0x8, addend: 0x0, symName: __ZNSt3__114__split_bufferIPNS_12basic_stringIcNS_11char_traitsIcEENS_9allocatorIcEEEERNS4_IS7_EEE10push_frontERKS7_, symObjAddr: 0x11E8C, symBinAddr: 0x100012AE0, symSize: 0xA64 }
  - { offsetInCU: 0x1BECA, offset: 0x1BECA, size: 0x8, addend: 0x0, symName: __ZNSt3__114__split_bufferIPNS_12basic_stringIcNS_11char_traitsIcEENS_9allocatorIcEEEENS4_IS7_EEE9__end_capB7v160006Ev, symObjAddr: 0x12A24, symBinAddr: 0x100013678, symSize: 0x28 }
  - { offsetInCU: 0x1BEF0, offset: 0x1BEF0, size: 0x8, addend: 0x0, symName: __ZNSt3__114__split_bufferIPNS_12basic_stringIcNS_11char_traitsIcEENS_9allocatorIcEEEERNS4_IS7_EEE9__end_capB7v160006Ev, symObjAddr: 0x12A4C, symBinAddr: 0x1000136A0, symSize: 0x28 }
  - { offsetInCU: 0x1BF16, offset: 0x1BF16, size: 0x8, addend: 0x0, symName: __ZNSt3__110unique_ptrIPNS_12basic_stringIcNS_11char_traitsIcEENS_9allocatorIcEEEENS_22__allocator_destructorINS4_IS6_EEEEED1B7v160006Ev, symObjAddr: 0x12A74, symBinAddr: 0x1000136C8, symSize: 0x2C }
  - { offsetInCU: 0x1BF40, offset: 0x1BF40, size: 0x8, addend: 0x0, symName: __ZNSt3__114__split_bufferIPNS_12basic_stringIcNS_11char_traitsIcEENS_9allocatorIcEEEERNS4_IS7_EEED1Ev, symObjAddr: 0x12AA0, symBinAddr: 0x1000136F4, symSize: 0x2C }
  - { offsetInCU: 0x1BF6C, offset: 0x1BF6C, size: 0x8, addend: 0x0, symName: __ZNSt3__114__split_bufferIPNS_12basic_stringIcNS_11char_traitsIcEENS_9allocatorIcEEEENS4_IS7_EEE19__destruct_at_beginB7v160006EPS7_, symObjAddr: 0x12ACC, symBinAddr: 0x100013720, symSize: 0x2C }
  - { offsetInCU: 0x1BFA0, offset: 0x1BFA0, size: 0x8, addend: 0x0, symName: __ZNSt3__114__split_bufferIPNS_12basic_stringIcNS_11char_traitsIcEENS_9allocatorIcEEEENS4_IS7_EEE19__destruct_at_beginEPS7_NS_17integral_constantIbLb1EEE, symObjAddr: 0x12AF8, symBinAddr: 0x10001374C, symSize: 0x74 }
  - { offsetInCU: 0x1BFE0, offset: 0x1BFE0, size: 0x8, addend: 0x0, symName: __ZNSt3__114__split_bufferIPNS_12basic_stringIcNS_11char_traitsIcEENS_9allocatorIcEEEERNS4_IS7_EEE18__construct_at_endINS_13move_iteratorIPS7_EEEENS_9enable_ifIXsr27__is_cpp17_forward_iteratorIT_EE5valueEvE4typeESG_SG_, symObjAddr: 0x12DC0, symBinAddr: 0x100013A14, symSize: 0x614 }
  - { offsetInCU: 0x1C049, offset: 0x1C049, size: 0x8, addend: 0x0, symName: __ZNSt3__113move_iteratorIPPNS_12basic_stringIcNS_11char_traitsIcEENS_9allocatorIcEEEEEC1B7v160006ES8_, symObjAddr: 0x133D4, symBinAddr: 0x100014028, symSize: 0x34 }
  - { offsetInCU: 0x1C086, offset: 0x1C086, size: 0x8, addend: 0x0, symName: __ZNSt3__116allocator_traitsINS_9allocatorIPNS_12basic_stringIcNS_11char_traitsIcEENS1_IcEEEEEEE9constructB7v160006IS7_JRKS7_EvEEvRS8_PT_DpOT0_, symObjAddr: 0x13408, symBinAddr: 0x10001405C, symSize: 0x34 }
  - { offsetInCU: 0x1C100, offset: 0x1C100, size: 0x8, addend: 0x0, symName: __ZNKSt3__114__move_trivialclB7v160006IPNS_12basic_stringIcNS_11char_traitsIcEENS_9allocatorIcEEEES8_Li0EEENS_4pairIPT_PT0_EESB_SB_SD_, symObjAddr: 0x14198, symBinAddr: 0x100014DEC, symSize: 0x230 }
  - { offsetInCU: 0x1C16C, offset: 0x1C16C, size: 0x8, addend: 0x0, symName: __ZNSt3__14pairIPPNS_12basic_stringIcNS_11char_traitsIcEENS_9allocatorIcEEEES8_EC1B7v160006ERKS8_SB_, symObjAddr: 0x14C44, symBinAddr: 0x100015898, symSize: 0x3C }
  - { offsetInCU: 0x1C1B2, offset: 0x1C1B2, size: 0x8, addend: 0x0, symName: __ZNSt3__14pairIPPNS_12basic_stringIcNS_11char_traitsIcEENS_9allocatorIcEEEES8_EC2B7v160006ERKS8_SB_, symObjAddr: 0x14C80, symBinAddr: 0x1000158D4, symSize: 0x138 }
  - { offsetInCU: 0x1C1F8, offset: 0x1C1F8, size: 0x8, addend: 0x0, symName: __ZNSt3__118__unwrap_iter_implIPPNS_12basic_stringIcNS_11char_traitsIcEENS_9allocatorIcEEEELb1EE8__unwrapB7v160006ES8_, symObjAddr: 0x14DB8, symBinAddr: 0x100015A0C, symSize: 0x24 }
  - { offsetInCU: 0x1C21B, offset: 0x1C21B, size: 0x8, addend: 0x0, symName: __ZNSt3__118__unwrap_iter_implIPPNS_12basic_stringIcNS_11char_traitsIcEENS_9allocatorIcEEEELb1EE8__rewrapB7v160006ES8_S8_, symObjAddr: 0x14DDC, symBinAddr: 0x100015A30, symSize: 0x50 }
  - { offsetInCU: 0x1C256, offset: 0x1C256, size: 0x8, addend: 0x0, symName: __ZNSt3__114__split_bufferIPNS_12basic_stringIcNS_11char_traitsIcEENS_9allocatorIcEEEERNS4_IS7_EEE21_ConstructTransactionC1B7v160006EPPS7_m, symObjAddr: 0x1517C, symBinAddr: 0x100015DD0, symSize: 0x3C }
  - { offsetInCU: 0x1C29C, offset: 0x1C29C, size: 0x8, addend: 0x0, symName: __ZNSt3__116allocator_traitsINS_9allocatorIPNS_12basic_stringIcNS_11char_traitsIcEENS1_IcEEEEEEE9constructB7v160006IS7_JS7_EvEEvRS8_PT_DpOT0_, symObjAddr: 0x151B8, symBinAddr: 0x100015E0C, symSize: 0x34 }
  - { offsetInCU: 0x1C2F3, offset: 0x1C2F3, size: 0x8, addend: 0x0, symName: __ZNSt3__114__split_bufferIPNS_12basic_stringIcNS_11char_traitsIcEENS_9allocatorIcEEEERNS4_IS7_EEE7__allocB7v160006Ev, symObjAddr: 0x151EC, symBinAddr: 0x100015E40, symSize: 0x28 }
  - { offsetInCU: 0x1C319, offset: 0x1C319, size: 0x8, addend: 0x0, symName: __ZNKSt3__113move_iteratorIPPNS_12basic_stringIcNS_11char_traitsIcEENS_9allocatorIcEEEEEdeB7v160006Ev, symObjAddr: 0x15214, symBinAddr: 0x100015E68, symSize: 0x60 }
  - { offsetInCU: 0x1C33F, offset: 0x1C33F, size: 0x8, addend: 0x0, symName: __ZNSt3__113move_iteratorIPPNS_12basic_stringIcNS_11char_traitsIcEENS_9allocatorIcEEEEEppB7v160006Ev, symObjAddr: 0x15274, symBinAddr: 0x100015EC8, symSize: 0x68 }
  - { offsetInCU: 0x1C365, offset: 0x1C365, size: 0x8, addend: 0x0, symName: __ZNSt3__114__split_bufferIPNS_12basic_stringIcNS_11char_traitsIcEENS_9allocatorIcEEEERNS4_IS7_EEE21_ConstructTransactionD1B7v160006Ev, symObjAddr: 0x152DC, symBinAddr: 0x100015F30, symSize: 0x2C }
  - { offsetInCU: 0x1C38F, offset: 0x1C38F, size: 0x8, addend: 0x0, symName: __ZNKSt3__113move_iteratorIPPNS_12basic_stringIcNS_11char_traitsIcEENS_9allocatorIcEEEEE4baseB7v160006Ev, symObjAddr: 0x155C4, symBinAddr: 0x100016218, symSize: 0x60 }
  - { offsetInCU: 0x1C3B5, offset: 0x1C3B5, size: 0x8, addend: 0x0, symName: __ZNSt3__114__split_bufferIPNS_12basic_stringIcNS_11char_traitsIcEENS_9allocatorIcEEEERNS4_IS7_EEE21_ConstructTransactionC2B7v160006EPPS7_m, symObjAddr: 0x15624, symBinAddr: 0x100016278, symSize: 0x184 }
  - { offsetInCU: 0x1C3FB, offset: 0x1C3FB, size: 0x8, addend: 0x0, symName: __ZNSt3__19allocatorIPNS_12basic_stringIcNS_11char_traitsIcEENS0_IcEEEEE9constructB7v160006IS6_JS6_EEEvPT_DpOT0_, symObjAddr: 0x157A8, symBinAddr: 0x1000163FC, symSize: 0xB4 }
  - { offsetInCU: 0x1C451, offset: 0x1C451, size: 0x8, addend: 0x0, symName: __ZNSt3__117__compressed_pairIPPNS_12basic_stringIcNS_11char_traitsIcEENS_9allocatorIcEEEERNS4_IS7_EEE6secondB7v160006Ev, symObjAddr: 0x1585C, symBinAddr: 0x1000164B0, symSize: 0x28 }
  - { offsetInCU: 0x1C477, offset: 0x1C477, size: 0x8, addend: 0x0, symName: __ZNSt3__122__compressed_pair_elemIRNS_9allocatorIPNS_12basic_stringIcNS_11char_traitsIcEENS1_IcEEEEEELi1ELb0EE5__getB7v160006Ev, symObjAddr: 0x15884, symBinAddr: 0x1000164D8, symSize: 0x60 }
  - { offsetInCU: 0x1C49D, offset: 0x1C49D, size: 0x8, addend: 0x0, symName: __ZNSt3__114__split_bufferIPNS_12basic_stringIcNS_11char_traitsIcEENS_9allocatorIcEEEERNS4_IS7_EEE21_ConstructTransactionD2B7v160006Ev, symObjAddr: 0x158E4, symBinAddr: 0x100016538, symSize: 0xE0 }
  - { offsetInCU: 0x1C4C7, offset: 0x1C4C7, size: 0x8, addend: 0x0, symName: __ZNSt3__113move_iteratorIPPNS_12basic_stringIcNS_11char_traitsIcEENS_9allocatorIcEEEEEC2B7v160006ES8_, symObjAddr: 0x159C4, symBinAddr: 0x100016618, symSize: 0x70 }
  - { offsetInCU: 0x1C4FF, offset: 0x1C4FF, size: 0x8, addend: 0x0, symName: __ZNSt3__19allocatorIPNS_12basic_stringIcNS_11char_traitsIcEENS0_IcEEEEE9constructB7v160006IS6_JRKS6_EEEvPT_DpOT0_, symObjAddr: 0x15A34, symBinAddr: 0x100016688, symSize: 0xB4 }
  - { offsetInCU: 0x1C555, offset: 0x1C555, size: 0x8, addend: 0x0, symName: __ZNSt3__19allocatorINS_12basic_stringIcNS_11char_traitsIcEENS0_IcEEEEE8allocateB7v160006Em, symObjAddr: 0x15AE8, symBinAddr: 0x10001673C, symSize: 0x90 }
  - { offsetInCU: 0x1C593, offset: 0x1C593, size: 0x8, addend: 0x0, symName: __ZNSt3__116allocator_traitsINS_9allocatorINS_12basic_stringIcNS_11char_traitsIcEENS1_IcEEEEEEE8max_sizeB7v160006IS7_vEEmRKS7_, symObjAddr: 0x15B78, symBinAddr: 0x1000167CC, symSize: 0x24 }
  - { offsetInCU: 0x1C5C1, offset: 0x1C5C1, size: 0x8, addend: 0x0, symName: __ZNKSt3__19allocatorINS_12basic_stringIcNS_11char_traitsIcEENS0_IcEEEEE8max_sizeB7v160006Ev, symObjAddr: 0x15BFC, symBinAddr: 0x100016850, symSize: 0x18 }
  - { offsetInCU: 0x1C5F1, offset: 0x1C5F1, size: 0x8, addend: 0x0, symName: __ZNKSt3__123__move_backward_trivialclB7v160006IPNS_12basic_stringIcNS_11char_traitsIcEENS_9allocatorIcEEEES8_Li0EEENS_4pairIPT_PT0_EESB_SB_SD_, symObjAddr: 0x16898, symBinAddr: 0x1000174EC, symSize: 0x230 }
  - { offsetInCU: 0x1C667, offset: 0x1C667, size: 0x8, addend: 0x0, symName: __ZNKSt3__16__lessImmEclB7v160006ERKmS3_, symObjAddr: 0x1729C, symBinAddr: 0x100017EF0, symSize: 0xBC }
  - { offsetInCU: 0x1C6A9, offset: 0x1C6A9, size: 0x8, addend: 0x0, symName: __ZNSt3__114__split_bufferIPNS_12basic_stringIcNS_11char_traitsIcEENS_9allocatorIcEEEERNS4_IS7_EEEC2EmmS9_, symObjAddr: 0x17358, symBinAddr: 0x100017FAC, symSize: 0x520 }
  - { offsetInCU: 0x1C724, offset: 0x1C724, size: 0x8, addend: 0x0, symName: __ZNSt3__117__compressed_pairIPPNS_12basic_stringIcNS_11char_traitsIcEENS_9allocatorIcEEEERNS4_IS7_EEEC1B7v160006IDnSA_EEOT_OT0_, symObjAddr: 0x17878, symBinAddr: 0x1000184CC, symSize: 0x3C }
  - { offsetInCU: 0x1C77C, offset: 0x1C77C, size: 0x8, addend: 0x0, symName: __ZNSt3__117__compressed_pairIPPNS_12basic_stringIcNS_11char_traitsIcEENS_9allocatorIcEEEERNS4_IS7_EEEC2B7v160006IDnSA_EEOT_OT0_, symObjAddr: 0x17B40, symBinAddr: 0x100018794, symSize: 0x48 }
  - { offsetInCU: 0x1C7D4, offset: 0x1C7D4, size: 0x8, addend: 0x0, symName: __ZNSt3__122__compressed_pair_elemIRNS_9allocatorIPNS_12basic_stringIcNS_11char_traitsIcEENS1_IcEEEEEELi1ELb0EEC2B7v160006IS9_vEEOT_, symObjAddr: 0x17B88, symBinAddr: 0x1000187DC, symSize: 0x70 }
  - { offsetInCU: 0x1C816, offset: 0x1C816, size: 0x8, addend: 0x0, symName: __ZNSt3__19allocatorIPNS_12basic_stringIcNS_11char_traitsIcEENS0_IcEEEEE8allocateB7v160006Em, symObjAddr: 0x17BF8, symBinAddr: 0x10001884C, symSize: 0x88 }
  - { offsetInCU: 0x1C854, offset: 0x1C854, size: 0x8, addend: 0x0, symName: __ZNSt3__116allocator_traitsINS_9allocatorIPNS_12basic_stringIcNS_11char_traitsIcEENS1_IcEEEEEEE8max_sizeB7v160006IS8_vEEmRKS8_, symObjAddr: 0x17C80, symBinAddr: 0x1000188D4, symSize: 0x24 }
  - { offsetInCU: 0x1C882, offset: 0x1C882, size: 0x8, addend: 0x0, symName: __ZNKSt3__19allocatorIPNS_12basic_stringIcNS_11char_traitsIcEENS0_IcEEEEE8max_sizeB7v160006Ev, symObjAddr: 0x17CA4, symBinAddr: 0x1000188F8, symSize: 0x14 }
  - { offsetInCU: 0x1C8A8, offset: 0x1C8A8, size: 0x8, addend: 0x0, symName: __ZNSt3__122__allocator_destructorINS_9allocatorINS_12basic_stringIcNS_11char_traitsIcEENS1_IcEEEEEEEC2B7v160006ERS7_m, symObjAddr: 0x17CB8, symBinAddr: 0x10001890C, symSize: 0xBC }
  - { offsetInCU: 0x1C8EE, offset: 0x1C8EE, size: 0x8, addend: 0x0, symName: __ZNSt3__110unique_ptrIPNS_12basic_stringIcNS_11char_traitsIcEENS_9allocatorIcEEEENS_22__allocator_destructorINS4_IS6_EEEEEC2B7v160006ILb1EvEES7_NS_16__dependent_typeINS_27__unique_ptr_deleter_sfinaeISA_EEXT_EE20__good_rval_ref_typeE, symObjAddr: 0x17D74, symBinAddr: 0x1000189C8, symSize: 0x230 }
  - { offsetInCU: 0x1C945, offset: 0x1C945, size: 0x8, addend: 0x0, symName: __ZNSt3__117__compressed_pairIPNS_12basic_stringIcNS_11char_traitsIcEENS_9allocatorIcEEEENS_22__allocator_destructorINS4_IS6_EEEEEC1B7v160006IRS7_SA_EEOT_OT0_, symObjAddr: 0x17FA4, symBinAddr: 0x100018BF8, symSize: 0x3C }
  - { offsetInCU: 0x1C99D, offset: 0x1C99D, size: 0x8, addend: 0x0, symName: __ZNSt3__117__compressed_pairIPNS_12basic_stringIcNS_11char_traitsIcEENS_9allocatorIcEEEENS_22__allocator_destructorINS4_IS6_EEEEEC2B7v160006IRS7_SA_EEOT_OT0_, symObjAddr: 0x17FE0, symBinAddr: 0x100018C34, symSize: 0x48 }
  - { offsetInCU: 0x1C9F5, offset: 0x1C9F5, size: 0x8, addend: 0x0, symName: __ZNSt3__122__compressed_pair_elemIPNS_12basic_stringIcNS_11char_traitsIcEENS_9allocatorIcEEEELi0ELb0EEC2B7v160006IRS7_vEEOT_, symObjAddr: 0x18028, symBinAddr: 0x100018C7C, symSize: 0xB0 }
  - { offsetInCU: 0x1CA37, offset: 0x1CA37, size: 0x8, addend: 0x0, symName: __ZNSt3__122__compressed_pair_elemINS_22__allocator_destructorINS_9allocatorINS_12basic_stringIcNS_11char_traitsIcEENS2_IcEEEEEEEELi1ELb0EEC2B7v160006IS9_vEEOT_, symObjAddr: 0x180D8, symBinAddr: 0x100018D2C, symSize: 0x38 }
  - { offsetInCU: 0x1CA79, offset: 0x1CA79, size: 0x8, addend: 0x0, symName: __ZNKSt3__117__compressed_pairIPNS_12basic_stringIcNS_11char_traitsIcEENS_9allocatorIcEEEENS_22__allocator_destructorINS4_IS6_EEEEE5firstB7v160006Ev, symObjAddr: 0x18110, symBinAddr: 0x100018D64, symSize: 0x24 }
  - { offsetInCU: 0x1CA9F, offset: 0x1CA9F, size: 0x8, addend: 0x0, symName: __ZNKSt3__122__compressed_pair_elemIPNS_12basic_stringIcNS_11char_traitsIcEENS_9allocatorIcEEEELi0ELb0EE5__getB7v160006Ev, symObjAddr: 0x18134, symBinAddr: 0x100018D88, symSize: 0x14 }
  - { offsetInCU: 0x1CAC5, offset: 0x1CAC5, size: 0x8, addend: 0x0, symName: __ZNSt3__117__compressed_pairIPNS_12basic_stringIcNS_11char_traitsIcEENS_9allocatorIcEEEENS_22__allocator_destructorINS4_IS6_EEEEE5firstB7v160006Ev, symObjAddr: 0x18148, symBinAddr: 0x100018D9C, symSize: 0x24 }
  - { offsetInCU: 0x1CAEB, offset: 0x1CAEB, size: 0x8, addend: 0x0, symName: __ZNSt3__122__compressed_pair_elemIPNS_12basic_stringIcNS_11char_traitsIcEENS_9allocatorIcEEEELi0ELb0EE5__getB7v160006Ev, symObjAddr: 0x1816C, symBinAddr: 0x100018DC0, symSize: 0x14 }
  - { offsetInCU: 0x1CB11, offset: 0x1CB11, size: 0x8, addend: 0x0, symName: __ZNSt3__117__compressed_pairIPPNS_12basic_stringIcNS_11char_traitsIcEENS_9allocatorIcEEEENS4_IS7_EEE5firstB7v160006Ev, symObjAddr: 0x18180, symBinAddr: 0x100018DD4, symSize: 0x24 }
  - { offsetInCU: 0x1CB37, offset: 0x1CB37, size: 0x8, addend: 0x0, symName: __ZNSt3__122__compressed_pair_elemIPPNS_12basic_stringIcNS_11char_traitsIcEENS_9allocatorIcEEEELi0ELb0EE5__getB7v160006Ev, symObjAddr: 0x181A4, symBinAddr: 0x100018DF8, symSize: 0x14 }
  - { offsetInCU: 0x1CB5D, offset: 0x1CB5D, size: 0x8, addend: 0x0, symName: __ZNSt3__117__compressed_pairIPPNS_12basic_stringIcNS_11char_traitsIcEENS_9allocatorIcEEEERNS4_IS7_EEE5firstB7v160006Ev, symObjAddr: 0x181B8, symBinAddr: 0x100018E0C, symSize: 0x24 }
  - { offsetInCU: 0x1CB83, offset: 0x1CB83, size: 0x8, addend: 0x0, symName: __ZNSt3__110unique_ptrIPNS_12basic_stringIcNS_11char_traitsIcEENS_9allocatorIcEEEENS_22__allocator_destructorINS4_IS6_EEEEED2B7v160006Ev, symObjAddr: 0x181DC, symBinAddr: 0x100018E30, symSize: 0x30 }
  - { offsetInCU: 0x1CBAD, offset: 0x1CBAD, size: 0x8, addend: 0x0, symName: __ZNSt3__110unique_ptrIPNS_12basic_stringIcNS_11char_traitsIcEENS_9allocatorIcEEEENS_22__allocator_destructorINS4_IS6_EEEEE5resetB7v160006ES7_, symObjAddr: 0x1820C, symBinAddr: 0x100018E60, symSize: 0xEC }
  - { offsetInCU: 0x1CBF1, offset: 0x1CBF1, size: 0x8, addend: 0x0, symName: __ZNSt3__117__compressed_pairIPNS_12basic_stringIcNS_11char_traitsIcEENS_9allocatorIcEEEENS_22__allocator_destructorINS4_IS6_EEEEE6secondB7v160006Ev, symObjAddr: 0x182F8, symBinAddr: 0x100018F4C, symSize: 0x28 }
  - { offsetInCU: 0x1CC17, offset: 0x1CC17, size: 0x8, addend: 0x0, symName: __ZNSt3__122__allocator_destructorINS_9allocatorINS_12basic_stringIcNS_11char_traitsIcEENS1_IcEEEEEEEclB7v160006EPS6_, symObjAddr: 0x18320, symBinAddr: 0x100018F74, symSize: 0xB8 }
  - { offsetInCU: 0x1CC4B, offset: 0x1CC4B, size: 0x8, addend: 0x0, symName: __ZNSt3__122__compressed_pair_elemINS_22__allocator_destructorINS_9allocatorINS_12basic_stringIcNS_11char_traitsIcEENS2_IcEEEEEEEELi1ELb0EE5__getB7v160006Ev, symObjAddr: 0x183D8, symBinAddr: 0x10001902C, symSize: 0x14 }
  - { offsetInCU: 0x1CC71, offset: 0x1CC71, size: 0x8, addend: 0x0, symName: __ZNSt3__114__split_bufferIPNS_12basic_stringIcNS_11char_traitsIcEENS_9allocatorIcEEEERNS4_IS7_EEED2Ev, symObjAddr: 0x183EC, symBinAddr: 0x100019040, symSize: 0xEC }
  - { offsetInCU: 0x1CC9D, offset: 0x1CC9D, size: 0x8, addend: 0x0, symName: __ZNSt3__114__split_bufferIPNS_12basic_stringIcNS_11char_traitsIcEENS_9allocatorIcEEEERNS4_IS7_EEE5clearB7v160006Ev, symObjAddr: 0x184D8, symBinAddr: 0x10001912C, symSize: 0x68 }
  - { offsetInCU: 0x1CCC3, offset: 0x1CCC3, size: 0x8, addend: 0x0, symName: __ZNKSt3__114__split_bufferIPNS_12basic_stringIcNS_11char_traitsIcEENS_9allocatorIcEEEERNS4_IS7_EEE8capacityB7v160006Ev, symObjAddr: 0x18540, symBinAddr: 0x100019194, symSize: 0xBC }
  - { offsetInCU: 0x1CCE9, offset: 0x1CCE9, size: 0x8, addend: 0x0, symName: __ZNSt3__114__split_bufferIPNS_12basic_stringIcNS_11char_traitsIcEENS_9allocatorIcEEEERNS4_IS7_EEE17__destruct_at_endB7v160006EPS7_, symObjAddr: 0x185FC, symBinAddr: 0x100019250, symSize: 0x2C }
  - { offsetInCU: 0x1CD1D, offset: 0x1CD1D, size: 0x8, addend: 0x0, symName: __ZNSt3__114__split_bufferIPNS_12basic_stringIcNS_11char_traitsIcEENS_9allocatorIcEEEERNS4_IS7_EEE17__destruct_at_endB7v160006EPS7_NS_17integral_constantIbLb0EEE, symObjAddr: 0x18628, symBinAddr: 0x10001927C, symSize: 0x120 }
  - { offsetInCU: 0x1CD5D, offset: 0x1CD5D, size: 0x8, addend: 0x0, symName: __ZNKSt3__114__split_bufferIPNS_12basic_stringIcNS_11char_traitsIcEENS_9allocatorIcEEEERNS4_IS7_EEE9__end_capB7v160006Ev, symObjAddr: 0x18748, symBinAddr: 0x10001939C, symSize: 0x28 }
  - { offsetInCU: 0x1CD83, offset: 0x1CD83, size: 0x8, addend: 0x0, symName: __ZNKSt3__117__compressed_pairIPPNS_12basic_stringIcNS_11char_traitsIcEENS_9allocatorIcEEEERNS4_IS7_EEE5firstB7v160006Ev, symObjAddr: 0x18770, symBinAddr: 0x1000193C4, symSize: 0x24 }
  - { offsetInCU: 0x1CDA9, offset: 0x1CDA9, size: 0x8, addend: 0x0, symName: __ZNSt3__19allocatorINS_12basic_stringIcNS_11char_traitsIcEENS0_IcEEEEE9constructB7v160006IS5_JRKS5_EEEvPT_DpOT0_, symObjAddr: 0x18794, symBinAddr: 0x1000193E8, symSize: 0x30 }
  - { offsetInCU: 0x1CDFF, offset: 0x1CDFF, size: 0x8, addend: 0x0, symName: __ZNKSt3__114__split_bufferIPNS_12basic_stringIcNS_11char_traitsIcEENS_9allocatorIcEEEENS4_IS7_EEE5emptyB7v160006Ev, symObjAddr: 0x187C4, symBinAddr: 0x100019418, symSize: 0xB4 }
  - { offsetInCU: 0x1CE25, offset: 0x1CE25, size: 0x8, addend: 0x0, symName: __ZNSt3__116__deque_iteratorINS_12basic_stringIcNS_11char_traitsIcEENS_9allocatorIcEEEEPS6_RS6_PS7_lLl170EEC1B7v160006ES9_S7_, symObjAddr: 0x18878, symBinAddr: 0x1000194CC, symSize: 0x3C }
  - { offsetInCU: 0x1CE6D, offset: 0x1CE6D, size: 0x8, addend: 0x0, symName: __ZNSt3__116__deque_iteratorINS_12basic_stringIcNS_11char_traitsIcEENS_9allocatorIcEEEEPS6_RS6_PS7_lLl170EEC2B7v160006ES9_S7_, symObjAddr: 0x188B4, symBinAddr: 0x100019508, symSize: 0xBC }
  - { offsetInCU: 0x1CEB5, offset: 0x1CEB5, size: 0x8, addend: 0x0, symName: __ZNSt3__117__compressed_pairImNS_9allocatorINS_12basic_stringIcNS_11char_traitsIcEENS1_IcEEEEEEE5firstB7v160006Ev, symObjAddr: 0x18970, symBinAddr: 0x1000195C4, symSize: 0x24 }
  - { offsetInCU: 0x1CEDB, offset: 0x1CEDB, size: 0x8, addend: 0x0, symName: __ZNSt3__112basic_stringIcNS_11char_traitsIcEENS_9allocatorIcEEEC2B7v160006IDnEEPKc, symObjAddr: 0x18994, symBinAddr: 0x1000195E8, symSize: 0x218 }
  - { offsetInCU: 0x1CF1B, offset: 0x1CF1B, size: 0x8, addend: 0x0, symName: __ZNSt3__19basic_iosIcNS_11char_traitsIcEEEC2B7v160006Ev, symObjAddr: 0x18BAC, symBinAddr: 0x100019800, symSize: 0x84 }
  - { offsetInCU: 0x1CF45, offset: 0x1CF45, size: 0x8, addend: 0x0, symName: __ZNSt3__114basic_iostreamIcNS_11char_traitsIcEEEC2B7v160006EPNS_15basic_streambufIcS2_EE, symObjAddr: 0x18C30, symBinAddr: 0x100019884, symSize: 0x268 }
  - { offsetInCU: 0x1CF8B, offset: 0x1CF8B, size: 0x8, addend: 0x0, symName: __ZNSt3__18ios_baseC2B7v160006Ev, symObjAddr: 0x18E98, symBinAddr: 0x100019AEC, symSize: 0x74 }
  - { offsetInCU: 0x1CFB5, offset: 0x1CFB5, size: 0x8, addend: 0x0, symName: __ZNSt3__113basic_istreamIcNS_11char_traitsIcEEEC2B7v160006EPNS_15basic_streambufIcS2_EE, symObjAddr: 0x18F0C, symBinAddr: 0x100019B60, symSize: 0x20C }
  - { offsetInCU: 0x1CFFA, offset: 0x1CFFA, size: 0x8, addend: 0x0, symName: __ZNSt3__113basic_ostreamIcNS_11char_traitsIcEEEC2B7v160006Ev, symObjAddr: 0x19118, symBinAddr: 0x100019D6C, symSize: 0x17C }
  - { offsetInCU: 0x1D031, offset: 0x1D031, size: 0x8, addend: 0x0, symName: __ZNSt3__19basic_iosIcNS_11char_traitsIcEEE4initB7v160006EPNS_15basic_streambufIcS2_EE, symObjAddr: 0x19294, symBinAddr: 0x100019EE8, symSize: 0xEC }
  - { offsetInCU: 0x1D068, offset: 0x1D068, size: 0x8, addend: 0x0, symName: __ZNSt3__112basic_stringIcNS_11char_traitsIcEENS_9allocatorIcEEEC2B7v160006Ev, symObjAddr: 0x19380, symBinAddr: 0x100019FD4, symSize: 0x1FC }
  - { offsetInCU: 0x1D093, offset: 0x1D093, size: 0x8, addend: 0x0, symName: __ZNSt3__112basic_stringIcNS_11char_traitsIcEENS_9allocatorIcEEE14__default_initB7v160006Ev, symObjAddr: 0x1957C, symBinAddr: 0x10001A1D0, symSize: 0x298 }
  - { offsetInCU: 0x1D0E8, offset: 0x1D0E8, size: 0x8, addend: 0x0, symName: __ZNSt3__117__compressed_pairINS_12basic_stringIcNS_11char_traitsIcEENS_9allocatorIcEEE5__repES5_E5firstB7v160006Ev, symObjAddr: 0x19814, symBinAddr: 0x10001A468, symSize: 0x24 }
  - { offsetInCU: 0x1D10E, offset: 0x1D10E, size: 0x8, addend: 0x0, symName: __ZNSt3__112basic_stringIcNS_11char_traitsIcEENS_9allocatorIcEEE11__recommendB7v160006Em, symObjAddr: 0x19838, symBinAddr: 0x10001A48C, symSize: 0x9C }
  - { offsetInCU: 0x1D141, offset: 0x1D141, size: 0x8, addend: 0x0, symName: __ZNSt3__116allocator_traitsINS_9allocatorIcEEE8allocateB7v160006ERS2_m, symObjAddr: 0x198D4, symBinAddr: 0x10001A528, symSize: 0x2C }
  - { offsetInCU: 0x1D174, offset: 0x1D174, size: 0x8, addend: 0x0, symName: __ZNSt3__112basic_stringIcNS_11char_traitsIcEENS_9allocatorIcEEE7__allocB7v160006Ev, symObjAddr: 0x19900, symBinAddr: 0x10001A554, symSize: 0x24 }
  - { offsetInCU: 0x1D19A, offset: 0x1D19A, size: 0x8, addend: 0x0, symName: __ZNSt3__112basic_stringIcNS_11char_traitsIcEENS_9allocatorIcEEE16__begin_lifetimeB7v160006EPcm, symObjAddr: 0x19924, symBinAddr: 0x10001A578, symSize: 0x14 }
  - { offsetInCU: 0x1D1CD, offset: 0x1D1CD, size: 0x8, addend: 0x0, symName: __ZNSt3__112basic_stringIcNS_11char_traitsIcEENS_9allocatorIcEEE18__set_long_pointerB7v160006EPc, symObjAddr: 0x19938, symBinAddr: 0x10001A58C, symSize: 0x7C }
  - { offsetInCU: 0x1D202, offset: 0x1D202, size: 0x8, addend: 0x0, symName: __ZNSt3__112basic_stringIcNS_11char_traitsIcEENS_9allocatorIcEEE14__set_long_capB7v160006Em, symObjAddr: 0x199B4, symBinAddr: 0x10001A608, symSize: 0xEC }
  - { offsetInCU: 0x1D237, offset: 0x1D237, size: 0x8, addend: 0x0, symName: __ZNSt3__112basic_stringIcNS_11char_traitsIcEENS_9allocatorIcEEE15__set_long_sizeB7v160006Em, symObjAddr: 0x19AA0, symBinAddr: 0x10001A6F4, symSize: 0x80 }
  - { offsetInCU: 0x1D26C, offset: 0x1D26C, size: 0x8, addend: 0x0, symName: __ZNSt3__122__compressed_pair_elemINS_12basic_stringIcNS_11char_traitsIcEENS_9allocatorIcEEE5__repELi0ELb0EE5__getB7v160006Ev, symObjAddr: 0x19B20, symBinAddr: 0x10001A774, symSize: 0x14 }
  - { offsetInCU: 0x1D292, offset: 0x1D292, size: 0x8, addend: 0x0, symName: __ZNSt3__112basic_stringIcNS_11char_traitsIcEENS_9allocatorIcEEE10__align_itB7v160006ILm16EEEmm, symObjAddr: 0x19B34, symBinAddr: 0x10001A788, symSize: 0x1C }
  - { offsetInCU: 0x1D2C0, offset: 0x1D2C0, size: 0x8, addend: 0x0, symName: __ZNSt3__19allocatorIcE8allocateB7v160006Em, symObjAddr: 0x19B50, symBinAddr: 0x10001A7A4, symSize: 0x88 }
  - { offsetInCU: 0x1D2FE, offset: 0x1D2FE, size: 0x8, addend: 0x0, symName: __ZNSt3__116allocator_traitsINS_9allocatorIcEEE8max_sizeB7v160006IS2_vEEmRKS2_, symObjAddr: 0x19BD8, symBinAddr: 0x10001A82C, symSize: 0x24 }
  - { offsetInCU: 0x1D32C, offset: 0x1D32C, size: 0x8, addend: 0x0, symName: __ZNKSt3__19allocatorIcE8max_sizeB7v160006Ev, symObjAddr: 0x19BFC, symBinAddr: 0x10001A850, symSize: 0x14 }
  - { offsetInCU: 0x1D352, offset: 0x1D352, size: 0x8, addend: 0x0, symName: __ZNSt3__117__compressed_pairINS_12basic_stringIcNS_11char_traitsIcEENS_9allocatorIcEEE5__repES5_E6secondB7v160006Ev, symObjAddr: 0x19C10, symBinAddr: 0x10001A864, symSize: 0x24 }
  - { offsetInCU: 0x1D378, offset: 0x1D378, size: 0x8, addend: 0x0, symName: __ZNSt3__122__compressed_pair_elemINS_9allocatorIcEELi1ELb1EE5__getB7v160006Ev, symObjAddr: 0x19C34, symBinAddr: 0x10001A888, symSize: 0x14 }
  - { offsetInCU: 0x1D39E, offset: 0x1D39E, size: 0x8, addend: 0x0, symName: __ZNSt3__113basic_filebufIcNS_11char_traitsIcEEE4openERKNS_12basic_stringIcS2_NS_9allocatorIcEEEEj, symObjAddr: 0x19C48, symBinAddr: 0x10001A89C, symSize: 0x44 }
  - { offsetInCU: 0x1D3E2, offset: 0x1D3E2, size: 0x8, addend: 0x0, symName: __ZNSt3__19basic_iosIcNS_11char_traitsIcEEE5clearB7v160006Ej, symObjAddr: 0x19C8C, symBinAddr: 0x10001A8E0, symSize: 0x2C }
  - { offsetInCU: 0x1D417, offset: 0x1D417, size: 0x8, addend: 0x0, symName: __ZNKSt3__113basic_filebufIcNS_11char_traitsIcEEE7is_openEv, symObjAddr: 0x19CB8, symBinAddr: 0x10001A90C, symSize: 0x70 }
  - { offsetInCU: 0x1D45D, offset: 0x1D45D, size: 0x8, addend: 0x0, symName: __ZNKSt3__113basic_istreamIcNS_11char_traitsIcEEE6sentrycvbB7v160006Ev, symObjAddr: 0x1A3B0, symBinAddr: 0x10001B004, symSize: 0x88 }
  - { offsetInCU: 0x1D483, offset: 0x1D483, size: 0x8, addend: 0x0, symName: __ZNSt3__115basic_streambufIcNS_11char_traitsIcEEE6sbumpcB7v160006Ev, symObjAddr: 0x1A438, symBinAddr: 0x10001B08C, symSize: 0x1EC }
  - { offsetInCU: 0x1D4A9, offset: 0x1D4A9, size: 0x8, addend: 0x0, symName: __ZNSt3__111char_traitsIcE12to_char_typeEi, symObjAddr: 0x1A624, symBinAddr: 0x10001B278, symSize: 0x18 }
  - { offsetInCU: 0x1D4CC, offset: 0x1D4CC, size: 0x8, addend: 0x0, symName: __ZNSt3__111char_traitsIcE2eqEcc, symObjAddr: 0x1A63C, symBinAddr: 0x10001B290, symSize: 0x28 }
  - { offsetInCU: 0x1D4FD, offset: 0x1D4FD, size: 0x8, addend: 0x0, symName: __ZNKSt3__112basic_stringIcNS_11char_traitsIcEENS_9allocatorIcEEE4sizeB7v160006Ev, symObjAddr: 0x1A664, symBinAddr: 0x10001B2B8, symSize: 0x54 }
  - { offsetInCU: 0x1D523, offset: 0x1D523, size: 0x8, addend: 0x0, symName: __ZNKSt3__112basic_stringIcNS_11char_traitsIcEENS_9allocatorIcEEE8max_sizeB7v160006Ev, symObjAddr: 0x1A6B8, symBinAddr: 0x10001B30C, symSize: 0xBC }
  - { offsetInCU: 0x1D575, offset: 0x1D575, size: 0x8, addend: 0x0, symName: __ZNSt3__18ios_base18__setstate_nothrowB7v160006Ej, symObjAddr: 0x1A774, symBinAddr: 0x10001B3C8, symSize: 0x178 }
  - { offsetInCU: 0x1D5AA, offset: 0x1D5AA, size: 0x8, addend: 0x0, symName: __ZNKSt3__19basic_iosIcNS_11char_traitsIcEEE10exceptionsB7v160006Ev, symObjAddr: 0x1A8EC, symBinAddr: 0x10001B540, symSize: 0x24 }
  - { offsetInCU: 0x1D5D0, offset: 0x1D5D0, size: 0x8, addend: 0x0, symName: __ZNSt3__111char_traitsIcE11to_int_typeEc, symObjAddr: 0x1A910, symBinAddr: 0x10001B564, symSize: 0x14 }
  - { offsetInCU: 0x1D5F3, offset: 0x1D5F3, size: 0x8, addend: 0x0, symName: __ZNKSt3__112basic_stringIcNS_11char_traitsIcEENS_9allocatorIcEEE15__get_long_sizeB7v160006Ev, symObjAddr: 0x1A924, symBinAddr: 0x10001B578, symSize: 0x70 }
  - { offsetInCU: 0x1D619, offset: 0x1D619, size: 0x8, addend: 0x0, symName: __ZNKSt3__112basic_stringIcNS_11char_traitsIcEENS_9allocatorIcEEE16__get_short_sizeB7v160006Ev, symObjAddr: 0x1A994, symBinAddr: 0x10001B5E8, symSize: 0xA0 }
  - { offsetInCU: 0x1D63F, offset: 0x1D63F, size: 0x8, addend: 0x0, symName: __ZNKSt3__112basic_stringIcNS_11char_traitsIcEENS_9allocatorIcEEE7__allocB7v160006Ev, symObjAddr: 0x1AA34, symBinAddr: 0x10001B688, symSize: 0x24 }
  - { offsetInCU: 0x1D665, offset: 0x1D665, size: 0x8, addend: 0x0, symName: __ZNSt3__114numeric_limitsImE3maxB7v160006Ev, symObjAddr: 0x1AA58, symBinAddr: 0x10001B6AC, symSize: 0x14 }
  - { offsetInCU: 0x1D679, offset: 0x1D679, size: 0x8, addend: 0x0, symName: __ZNKSt3__117__compressed_pairINS_12basic_stringIcNS_11char_traitsIcEENS_9allocatorIcEEE5__repES5_E6secondB7v160006Ev, symObjAddr: 0x1AA6C, symBinAddr: 0x10001B6C0, symSize: 0x24 }
  - { offsetInCU: 0x1D69F, offset: 0x1D69F, size: 0x8, addend: 0x0, symName: __ZNKSt3__122__compressed_pair_elemINS_9allocatorIcEELi1ELb1EE5__getB7v160006Ev, symObjAddr: 0x1AA90, symBinAddr: 0x10001B6E4, symSize: 0x14 }
  - { offsetInCU: 0x1D6C5, offset: 0x1D6C5, size: 0x8, addend: 0x0, symName: __ZNSt3__123__libcpp_numeric_limitsImLb1EE3maxB7v160006Ev, symObjAddr: 0x1AAA4, symBinAddr: 0x10001B6F8, symSize: 0x8 }
  - { offsetInCU: 0x1D6D9, offset: 0x1D6D9, size: 0x8, addend: 0x0, symName: __ZNKSt3__18ios_base10exceptionsB7v160006Ev, symObjAddr: 0x1AAAC, symBinAddr: 0x10001B700, symSize: 0x8C }
  - { offsetInCU: 0x1D701, offset: 0x1D701, size: 0x8, addend: 0x0, symName: __ZNKSt3__19basic_iosIcNS_11char_traitsIcEEE4failB7v160006Ev, symObjAddr: 0x1AB38, symBinAddr: 0x10001B78C, symSize: 0x28 }
  - { offsetInCU: 0x1D727, offset: 0x1D727, size: 0x8, addend: 0x0, symName: __ZNKSt3__18ios_base4failB7v160006Ev, symObjAddr: 0x1AB60, symBinAddr: 0x10001B7B4, symSize: 0x9C }
  - { offsetInCU: 0x1D74F, offset: 0x1D74F, size: 0x8, addend: 0x0, symName: __ZNSt3__115basic_stringbufIcNS_11char_traitsIcEENS_9allocatorIcEEEC1B7v160006ERKNS_12basic_stringIcS2_S4_EEj, symObjAddr: 0x1ABFC, symBinAddr: 0x10001B850, symSize: 0x3C }
  - { offsetInCU: 0x1D795, offset: 0x1D795, size: 0x8, addend: 0x0, symName: __ZNSt3__115basic_stringbufIcNS_11char_traitsIcEENS_9allocatorIcEEEC2B7v160006ERKNS_12basic_stringIcS2_S4_EEj, symObjAddr: 0x1AC38, symBinAddr: 0x10001B88C, symSize: 0x3D8 }
  - { offsetInCU: 0x1D7DE, offset: 0x1D7DE, size: 0x8, addend: 0x0, symName: __ZNKSt3__112basic_stringIcNS_11char_traitsIcEENS_9allocatorIcEEE13get_allocatorB7v160006Ev, symObjAddr: 0x1B010, symBinAddr: 0x10001BC64, symSize: 0x24 }
  - { offsetInCU: 0x1D804, offset: 0x1D804, size: 0x8, addend: 0x0, symName: __ZNSt3__112basic_stringIcNS_11char_traitsIcEENS_9allocatorIcEEEC1B7v160006ERKS4_, symObjAddr: 0x1B034, symBinAddr: 0x10001BC88, symSize: 0x34 }
  - { offsetInCU: 0x1D83D, offset: 0x1D83D, size: 0x8, addend: 0x0, symName: __ZNSt3__112basic_stringIcNS_11char_traitsIcEENS_9allocatorIcEEEC2B7v160006ERKS4_, symObjAddr: 0x1B068, symBinAddr: 0x10001BCBC, symSize: 0x1F0 }
  - { offsetInCU: 0x1D878, offset: 0x1D878, size: 0x8, addend: 0x0, symName: __ZNSt3__117__compressed_pairINS_12basic_stringIcNS_11char_traitsIcEENS_9allocatorIcEEE5__repES5_EC1B7v160006INS_18__default_init_tagERKS5_EEOT_OT0_, symObjAddr: 0x1B258, symBinAddr: 0x10001BEAC, symSize: 0x3C }
  - { offsetInCU: 0x1D8D0, offset: 0x1D8D0, size: 0x8, addend: 0x0, symName: __ZNSt3__117__compressed_pairINS_12basic_stringIcNS_11char_traitsIcEENS_9allocatorIcEEE5__repES5_EC2B7v160006INS_18__default_init_tagERKS5_EEOT_OT0_, symObjAddr: 0x1B294, symBinAddr: 0x10001BEE8, symSize: 0x40 }
  - { offsetInCU: 0x1D928, offset: 0x1D928, size: 0x8, addend: 0x0, symName: __ZNSt3__122__compressed_pair_elemINS_9allocatorIcEELi1ELb1EEC2B7v160006IRKS2_vEEOT_, symObjAddr: 0x1B2D4, symBinAddr: 0x10001BF28, symSize: 0x18 }
  - { offsetInCU: 0x1D96A, offset: 0x1D96A, size: 0x8, addend: 0x0, symName: __ZNSt3__114numeric_limitsIlE3maxB7v160006Ev, symObjAddr: 0x1B2EC, symBinAddr: 0x10001BF40, symSize: 0x14 }
  - { offsetInCU: 0x1D97E, offset: 0x1D97E, size: 0x8, addend: 0x0, symName: __ZNSt3__115basic_streambufIcNS_11char_traitsIcEEE5sgetcB7v160006Ev, symObjAddr: 0x1B300, symBinAddr: 0x10001BF54, symSize: 0x1E4 }
  - { offsetInCU: 0x1D9A4, offset: 0x1D9A4, size: 0x8, addend: 0x0, symName: __ZNKSt3__15ctypeIcE2isB7v160006Ejc, symObjAddr: 0x1B4E4, symBinAddr: 0x10001C138, symSize: 0x120 }
  - { offsetInCU: 0x1D9E8, offset: 0x1D9E8, size: 0x8, addend: 0x0, symName: __ZNSt3__123__libcpp_numeric_limitsIlLb1EE3maxB7v160006Ev, symObjAddr: 0x1B604, symBinAddr: 0x10001C258, symSize: 0x8 }
  - { offsetInCU: 0x1D9FB, offset: 0x1D9FB, size: 0x8, addend: 0x0, symName: __Z7isasciii, symObjAddr: 0x1B60C, symBinAddr: 0x10001C260, symSize: 0x24 }
  - { offsetInCU: 0x1DA28, offset: 0x1DA28, size: 0x8, addend: 0x0, symName: __ZNKSt3__18ios_base3eofB7v160006Ev, symObjAddr: 0x1B630, symBinAddr: 0x10001C284, symSize: 0x98 }
  - { offsetInCU: 0x1DA50, offset: 0x1DA50, size: 0x8, addend: 0x0, symName: __ZNKSt3__15dequeI8locationNS_9allocatorIS1_EEE12__back_spareB7v160006Ev, symObjAddr: 0x1B6C8, symBinAddr: 0x10001C31C, symSize: 0x90 }
  - { offsetInCU: 0x1DA76, offset: 0x1DA76, size: 0x8, addend: 0x0, symName: __ZNSt3__15dequeI8locationNS_9allocatorIS1_EEE19__add_back_capacityEv, symObjAddr: 0x1B758, symBinAddr: 0x10001C3AC, symSize: 0xA1C }
  - { offsetInCU: 0x1DB2E, offset: 0x1DB2E, size: 0x8, addend: 0x0, symName: __ZNSt3__116allocator_traitsINS_9allocatorI8locationEEE9constructB7v160006IS2_JRKS2_EvEEvRS3_PT_DpOT0_, symObjAddr: 0x1C174, symBinAddr: 0x10001CDC8, symSize: 0x34 }
  - { offsetInCU: 0x1DB85, offset: 0x1DB85, size: 0x8, addend: 0x0, symName: __ZNSt3__15dequeI8locationNS_9allocatorIS1_EEE3endB7v160006Ev, symObjAddr: 0x1C1A8, symBinAddr: 0x10001CDFC, symSize: 0x338 }
  - { offsetInCU: 0x1DBCC, offset: 0x1DBCC, size: 0x8, addend: 0x0, symName: __ZNKSt3__116__deque_iteratorI8locationPS1_RS1_PS2_lLl16EEdeB7v160006Ev, symObjAddr: 0x1C4E0, symBinAddr: 0x10001D134, symSize: 0x64 }
  - { offsetInCU: 0x1DBF2, offset: 0x1DBF2, size: 0x8, addend: 0x0, symName: __ZNSt3__15dequeI8locationNS_9allocatorIS1_EEE6__sizeB7v160006Ev, symObjAddr: 0x1C544, symBinAddr: 0x10001D198, symSize: 0x28 }
  - { offsetInCU: 0x1DC18, offset: 0x1DC18, size: 0x8, addend: 0x0, symName: __ZNKSt3__15dequeI8locationNS_9allocatorIS1_EEE10__capacityB7v160006Ev, symObjAddr: 0x1C56C, symBinAddr: 0x10001D1C0, symSize: 0x60 }
  - { offsetInCU: 0x1DC3E, offset: 0x1DC3E, size: 0x8, addend: 0x0, symName: __ZNKSt3__15dequeI8locationNS_9allocatorIS1_EEE4sizeB7v160006Ev, symObjAddr: 0x1C5CC, symBinAddr: 0x10001D220, symSize: 0x6C }
  - { offsetInCU: 0x1DC64, offset: 0x1DC64, size: 0x8, addend: 0x0, symName: __ZNKSt3__114__split_bufferIP8locationNS_9allocatorIS2_EEE4sizeB7v160006Ev, symObjAddr: 0x1C638, symBinAddr: 0x10001D28C, symSize: 0xB4 }
  - { offsetInCU: 0x1DC8A, offset: 0x1DC8A, size: 0x8, addend: 0x0, symName: __ZNKSt3__15dequeI8locationNS_9allocatorIS1_EEE6__sizeB7v160006Ev, symObjAddr: 0x1C6EC, symBinAddr: 0x10001D340, symSize: 0x28 }
  - { offsetInCU: 0x1DCB0, offset: 0x1DCB0, size: 0x8, addend: 0x0, symName: __ZNKSt3__117__compressed_pairImNS_9allocatorI8locationEEE5firstB7v160006Ev, symObjAddr: 0x1C714, symBinAddr: 0x10001D368, symSize: 0x24 }
  - { offsetInCU: 0x1DCD6, offset: 0x1DCD6, size: 0x8, addend: 0x0, symName: __ZNKSt3__15dequeI8locationNS_9allocatorIS1_EEE13__front_spareB7v160006Ev, symObjAddr: 0x1C738, symBinAddr: 0x10001D38C, symSize: 0x64 }
  - { offsetInCU: 0x1DCFC, offset: 0x1DCFC, size: 0x8, addend: 0x0, symName: __ZNSt3__114__split_bufferIP8locationNS_9allocatorIS2_EEE5frontB7v160006Ev, symObjAddr: 0x1C79C, symBinAddr: 0x10001D3F0, symSize: 0x64 }
  - { offsetInCU: 0x1DD22, offset: 0x1DD22, size: 0x8, addend: 0x0, symName: __ZNSt3__114__split_bufferIP8locationNS_9allocatorIS2_EEE9pop_frontB7v160006Ev, symObjAddr: 0x1C800, symBinAddr: 0x10001D454, symSize: 0x6C }
  - { offsetInCU: 0x1DD48, offset: 0x1DD48, size: 0x8, addend: 0x0, symName: __ZNSt3__114__split_bufferIP8locationNS_9allocatorIS2_EEE9push_backB7v160006ERKS2_, symObjAddr: 0x1C86C, symBinAddr: 0x10001D4C0, symSize: 0xA60 }
  - { offsetInCU: 0x1DDC7, offset: 0x1DDC7, size: 0x8, addend: 0x0, symName: __ZNKSt3__114__split_bufferIP8locationNS_9allocatorIS2_EEE12__back_spareB7v160006Ev, symObjAddr: 0x1D2CC, symBinAddr: 0x10001DF20, symSize: 0xC0 }
  - { offsetInCU: 0x1DDED, offset: 0x1DDED, size: 0x8, addend: 0x0, symName: __ZNSt3__114__split_bufferIP8locationNS_9allocatorIS2_EEE9push_backEOS2_, symObjAddr: 0x1D38C, symBinAddr: 0x10001DFE0, symSize: 0xA60 }
  - { offsetInCU: 0x1DE6C, offset: 0x1DE6C, size: 0x8, addend: 0x0, symName: __ZNSt3__116allocator_traitsINS_9allocatorI8locationEEE8allocateB7v160006ERS3_m, symObjAddr: 0x1DDEC, symBinAddr: 0x10001EA40, symSize: 0x2C }
  - { offsetInCU: 0x1DE9F, offset: 0x1DE9F, size: 0x8, addend: 0x0, symName: __ZNSt3__114__split_bufferIP8locationNS_9allocatorIS2_EEE10push_frontEOS2_, symObjAddr: 0x1DE18, symBinAddr: 0x10001EA6C, symSize: 0xA64 }
  - { offsetInCU: 0x1DF1E, offset: 0x1DF1E, size: 0x8, addend: 0x0, symName: __ZNSt3__114__split_bufferIP8locationRNS_9allocatorIS2_EEEC1EmmS5_, symObjAddr: 0x1E87C, symBinAddr: 0x10001F4D0, symSize: 0x44 }
  - { offsetInCU: 0x1DF79, offset: 0x1DF79, size: 0x8, addend: 0x0, symName: __ZNSt3__122__allocator_destructorINS_9allocatorI8locationEEEC1B7v160006ERS3_m, symObjAddr: 0x1E8C0, symBinAddr: 0x10001F514, symSize: 0x3C }
  - { offsetInCU: 0x1E041, offset: 0x1E041, size: 0x8, addend: 0x0, symName: __ZNSt3__110unique_ptrIP8locationNS_22__allocator_destructorINS_9allocatorIS1_EEEEEC1B7v160006ILb1EvEES2_NS_16__dependent_typeINS_27__unique_ptr_deleter_sfinaeIS6_EEXT_EE20__good_rval_ref_typeE, symObjAddr: 0x1E8FC, symBinAddr: 0x10001F550, symSize: 0x3C }
  - { offsetInCU: 0x1E092, offset: 0x1E092, size: 0x8, addend: 0x0, symName: __ZNSt3__114__split_bufferIP8locationRNS_9allocatorIS2_EEE9push_backEOS2_, symObjAddr: 0x1E938, symBinAddr: 0x10001F58C, symSize: 0xA60 }
  - { offsetInCU: 0x1E111, offset: 0x1E111, size: 0x8, addend: 0x0, symName: __ZNKSt3__110unique_ptrIP8locationNS_22__allocator_destructorINS_9allocatorIS1_EEEEE3getB7v160006Ev, symObjAddr: 0x1F398, symBinAddr: 0x10001FFEC, symSize: 0x6C }
  - { offsetInCU: 0x1E137, offset: 0x1E137, size: 0x8, addend: 0x0, symName: __ZNSt3__110unique_ptrIP8locationNS_22__allocator_destructorINS_9allocatorIS1_EEEEE7releaseB7v160006Ev, symObjAddr: 0x1F404, symBinAddr: 0x100020058, symSize: 0xB8 }
  - { offsetInCU: 0x1E16C, offset: 0x1E16C, size: 0x8, addend: 0x0, symName: __ZNSt3__114__split_bufferIP8locationRNS_9allocatorIS2_EEE10push_frontERKS2_, symObjAddr: 0x1F4BC, symBinAddr: 0x100020110, symSize: 0xA64 }
  - { offsetInCU: 0x1E1EB, offset: 0x1E1EB, size: 0x8, addend: 0x0, symName: __ZNSt3__114__split_bufferIP8locationNS_9allocatorIS2_EEE9__end_capB7v160006Ev, symObjAddr: 0x20054, symBinAddr: 0x100020CA8, symSize: 0x28 }
  - { offsetInCU: 0x1E211, offset: 0x1E211, size: 0x8, addend: 0x0, symName: __ZNSt3__114__split_bufferIP8locationRNS_9allocatorIS2_EEE9__end_capB7v160006Ev, symObjAddr: 0x2007C, symBinAddr: 0x100020CD0, symSize: 0x28 }
  - { offsetInCU: 0x1E237, offset: 0x1E237, size: 0x8, addend: 0x0, symName: __ZNSt3__110unique_ptrIP8locationNS_22__allocator_destructorINS_9allocatorIS1_EEEEED1B7v160006Ev, symObjAddr: 0x200A4, symBinAddr: 0x100020CF8, symSize: 0x2C }
  - { offsetInCU: 0x1E261, offset: 0x1E261, size: 0x8, addend: 0x0, symName: __ZNSt3__114__split_bufferIP8locationRNS_9allocatorIS2_EEED1Ev, symObjAddr: 0x200D0, symBinAddr: 0x100020D24, symSize: 0x2C }
  - { offsetInCU: 0x1E28D, offset: 0x1E28D, size: 0x8, addend: 0x0, symName: __ZNSt3__114__split_bufferIP8locationNS_9allocatorIS2_EEE19__destruct_at_beginB7v160006EPS2_, symObjAddr: 0x200FC, symBinAddr: 0x100020D50, symSize: 0x2C }
  - { offsetInCU: 0x1E2C1, offset: 0x1E2C1, size: 0x8, addend: 0x0, symName: __ZNSt3__114__split_bufferIP8locationNS_9allocatorIS2_EEE19__destruct_at_beginEPS2_NS_17integral_constantIbLb1EEE, symObjAddr: 0x20128, symBinAddr: 0x100020D7C, symSize: 0x74 }
  - { offsetInCU: 0x1E301, offset: 0x1E301, size: 0x8, addend: 0x0, symName: __ZNSt3__114__split_bufferIP8locationRNS_9allocatorIS2_EEE18__construct_at_endINS_13move_iteratorIPS2_EEEENS_9enable_ifIXsr27__is_cpp17_forward_iteratorIT_EE5valueEvE4typeESC_SC_, symObjAddr: 0x203F0, symBinAddr: 0x100021044, symSize: 0x614 }
  - { offsetInCU: 0x1E36A, offset: 0x1E36A, size: 0x8, addend: 0x0, symName: __ZNSt3__113move_iteratorIPP8locationEC1B7v160006ES3_, symObjAddr: 0x20A04, symBinAddr: 0x100021658, symSize: 0x34 }
  - { offsetInCU: 0x1E3A2, offset: 0x1E3A2, size: 0x8, addend: 0x0, symName: __ZNSt3__116allocator_traitsINS_9allocatorIP8locationEEE9constructB7v160006IS3_JRKS3_EvEEvRS4_PT_DpOT0_, symObjAddr: 0x20A38, symBinAddr: 0x10002168C, symSize: 0x34 }
  - { offsetInCU: 0x1E412, offset: 0x1E412, size: 0x8, addend: 0x0, symName: __ZNKSt3__114__move_trivialclB7v160006IP8locationS3_Li0EEENS_4pairIPT_PT0_EES6_S6_S8_, symObjAddr: 0x217C8, symBinAddr: 0x10002241C, symSize: 0x230 }
  - { offsetInCU: 0x1E47E, offset: 0x1E47E, size: 0x8, addend: 0x0, symName: __ZNSt3__14pairIPP8locationS3_EC1B7v160006ERKS3_S6_, symObjAddr: 0x22274, symBinAddr: 0x100022EC8, symSize: 0x3C }
  - { offsetInCU: 0x1E4C4, offset: 0x1E4C4, size: 0x8, addend: 0x0, symName: __ZNSt3__14pairIPP8locationS3_EC2B7v160006ERKS3_S6_, symObjAddr: 0x222B0, symBinAddr: 0x100022F04, symSize: 0x138 }
  - { offsetInCU: 0x1E50A, offset: 0x1E50A, size: 0x8, addend: 0x0, symName: __ZNSt3__118__unwrap_iter_implIPP8locationLb1EE8__unwrapB7v160006ES3_, symObjAddr: 0x223E8, symBinAddr: 0x10002303C, symSize: 0x24 }
  - { offsetInCU: 0x1E52D, offset: 0x1E52D, size: 0x8, addend: 0x0, symName: __ZNSt3__118__unwrap_iter_implIPP8locationLb1EE8__rewrapB7v160006ES3_S3_, symObjAddr: 0x2240C, symBinAddr: 0x100023060, symSize: 0x50 }
  - { offsetInCU: 0x1E568, offset: 0x1E568, size: 0x8, addend: 0x0, symName: __ZNSt3__114__split_bufferIP8locationRNS_9allocatorIS2_EEE21_ConstructTransactionC1B7v160006EPPS2_m, symObjAddr: 0x227AC, symBinAddr: 0x100023400, symSize: 0x3C }
  - { offsetInCU: 0x1E5AE, offset: 0x1E5AE, size: 0x8, addend: 0x0, symName: __ZNSt3__116allocator_traitsINS_9allocatorIP8locationEEE9constructB7v160006IS3_JS3_EvEEvRS4_PT_DpOT0_, symObjAddr: 0x227E8, symBinAddr: 0x10002343C, symSize: 0x34 }
  - { offsetInCU: 0x1E605, offset: 0x1E605, size: 0x8, addend: 0x0, symName: __ZNSt3__114__split_bufferIP8locationRNS_9allocatorIS2_EEE7__allocB7v160006Ev, symObjAddr: 0x2281C, symBinAddr: 0x100023470, symSize: 0x28 }
  - { offsetInCU: 0x1E62B, offset: 0x1E62B, size: 0x8, addend: 0x0, symName: __ZNKSt3__113move_iteratorIPP8locationEdeB7v160006Ev, symObjAddr: 0x22844, symBinAddr: 0x100023498, symSize: 0x60 }
  - { offsetInCU: 0x1E651, offset: 0x1E651, size: 0x8, addend: 0x0, symName: __ZNSt3__113move_iteratorIPP8locationEppB7v160006Ev, symObjAddr: 0x228A4, symBinAddr: 0x1000234F8, symSize: 0x68 }
  - { offsetInCU: 0x1E677, offset: 0x1E677, size: 0x8, addend: 0x0, symName: __ZNSt3__114__split_bufferIP8locationRNS_9allocatorIS2_EEE21_ConstructTransactionD1B7v160006Ev, symObjAddr: 0x2290C, symBinAddr: 0x100023560, symSize: 0x2C }
  - { offsetInCU: 0x1E6A1, offset: 0x1E6A1, size: 0x8, addend: 0x0, symName: __ZNKSt3__113move_iteratorIPP8locationE4baseB7v160006Ev, symObjAddr: 0x22BF4, symBinAddr: 0x100023848, symSize: 0x60 }
  - { offsetInCU: 0x1E6C7, offset: 0x1E6C7, size: 0x8, addend: 0x0, symName: __ZNSt3__114__split_bufferIP8locationRNS_9allocatorIS2_EEE21_ConstructTransactionC2B7v160006EPPS2_m, symObjAddr: 0x22C54, symBinAddr: 0x1000238A8, symSize: 0x184 }
  - { offsetInCU: 0x1E70D, offset: 0x1E70D, size: 0x8, addend: 0x0, symName: __ZNSt3__19allocatorIP8locationE9constructB7v160006IS2_JS2_EEEvPT_DpOT0_, symObjAddr: 0x22DD8, symBinAddr: 0x100023A2C, symSize: 0xB4 }
  - { offsetInCU: 0x1E763, offset: 0x1E763, size: 0x8, addend: 0x0, symName: __ZNSt3__117__compressed_pairIPP8locationRNS_9allocatorIS2_EEE6secondB7v160006Ev, symObjAddr: 0x22E8C, symBinAddr: 0x100023AE0, symSize: 0x28 }
  - { offsetInCU: 0x1E789, offset: 0x1E789, size: 0x8, addend: 0x0, symName: __ZNSt3__122__compressed_pair_elemIRNS_9allocatorIP8locationEELi1ELb0EE5__getB7v160006Ev, symObjAddr: 0x22EB4, symBinAddr: 0x100023B08, symSize: 0x60 }
  - { offsetInCU: 0x1E7AF, offset: 0x1E7AF, size: 0x8, addend: 0x0, symName: __ZNSt3__114__split_bufferIP8locationRNS_9allocatorIS2_EEE21_ConstructTransactionD2B7v160006Ev, symObjAddr: 0x22F14, symBinAddr: 0x100023B68, symSize: 0xE0 }
  - { offsetInCU: 0x1E7D9, offset: 0x1E7D9, size: 0x8, addend: 0x0, symName: __ZNSt3__113move_iteratorIPP8locationEC2B7v160006ES3_, symObjAddr: 0x22FF4, symBinAddr: 0x100023C48, symSize: 0x70 }
  - { offsetInCU: 0x1E811, offset: 0x1E811, size: 0x8, addend: 0x0, symName: __ZNSt3__19allocatorIP8locationE9constructB7v160006IS2_JRKS2_EEEvPT_DpOT0_, symObjAddr: 0x23064, symBinAddr: 0x100023CB8, symSize: 0xB4 }
  - { offsetInCU: 0x1E867, offset: 0x1E867, size: 0x8, addend: 0x0, symName: __ZNSt3__19allocatorI8locationE8allocateB7v160006Em, symObjAddr: 0x23118, symBinAddr: 0x100023D6C, symSize: 0x90 }
  - { offsetInCU: 0x1E8A5, offset: 0x1E8A5, size: 0x8, addend: 0x0, symName: __ZNSt3__116allocator_traitsINS_9allocatorI8locationEEE8max_sizeB7v160006IS3_vEEmRKS3_, symObjAddr: 0x231A8, symBinAddr: 0x100023DFC, symSize: 0x24 }
  - { offsetInCU: 0x1E8D3, offset: 0x1E8D3, size: 0x8, addend: 0x0, symName: __ZNKSt3__19allocatorI8locationE8max_sizeB7v160006Ev, symObjAddr: 0x231CC, symBinAddr: 0x100023E20, symSize: 0x20 }
  - { offsetInCU: 0x1E8F9, offset: 0x1E8F9, size: 0x8, addend: 0x0, symName: __ZNKSt3__123__move_backward_trivialclB7v160006IP8locationS3_Li0EEENS_4pairIPT_PT0_EES6_S6_S8_, symObjAddr: 0x23E4C, symBinAddr: 0x100024AA0, symSize: 0x230 }
  - { offsetInCU: 0x1E965, offset: 0x1E965, size: 0x8, addend: 0x0, symName: __ZNSt3__114__split_bufferIP8locationRNS_9allocatorIS2_EEEC2EmmS5_, symObjAddr: 0x24668, symBinAddr: 0x1000252BC, symSize: 0x520 }
  - { offsetInCU: 0x1E9E0, offset: 0x1E9E0, size: 0x8, addend: 0x0, symName: __ZNSt3__117__compressed_pairIPP8locationRNS_9allocatorIS2_EEEC1B7v160006IDnS6_EEOT_OT0_, symObjAddr: 0x24B88, symBinAddr: 0x1000257DC, symSize: 0x3C }
  - { offsetInCU: 0x1EA38, offset: 0x1EA38, size: 0x8, addend: 0x0, symName: __ZNSt3__117__compressed_pairIPP8locationRNS_9allocatorIS2_EEEC2B7v160006IDnS6_EEOT_OT0_, symObjAddr: 0x24E50, symBinAddr: 0x100025AA4, symSize: 0x48 }
  - { offsetInCU: 0x1EA90, offset: 0x1EA90, size: 0x8, addend: 0x0, symName: __ZNSt3__122__compressed_pair_elemIRNS_9allocatorIP8locationEELi1ELb0EEC2B7v160006IS5_vEEOT_, symObjAddr: 0x24E98, symBinAddr: 0x100025AEC, symSize: 0x70 }
  - { offsetInCU: 0x1EAD2, offset: 0x1EAD2, size: 0x8, addend: 0x0, symName: __ZNSt3__19allocatorIP8locationE8allocateB7v160006Em, symObjAddr: 0x24F08, symBinAddr: 0x100025B5C, symSize: 0x88 }
  - { offsetInCU: 0x1EB10, offset: 0x1EB10, size: 0x8, addend: 0x0, symName: __ZNSt3__116allocator_traitsINS_9allocatorIP8locationEEE8max_sizeB7v160006IS4_vEEmRKS4_, symObjAddr: 0x24F90, symBinAddr: 0x100025BE4, symSize: 0x24 }
  - { offsetInCU: 0x1EB3E, offset: 0x1EB3E, size: 0x8, addend: 0x0, symName: __ZNKSt3__19allocatorIP8locationE8max_sizeB7v160006Ev, symObjAddr: 0x24FB4, symBinAddr: 0x100025C08, symSize: 0x14 }
  - { offsetInCU: 0x1EB64, offset: 0x1EB64, size: 0x8, addend: 0x0, symName: __ZNSt3__122__allocator_destructorINS_9allocatorI8locationEEEC2B7v160006ERS3_m, symObjAddr: 0x24FC8, symBinAddr: 0x100025C1C, symSize: 0xBC }
  - { offsetInCU: 0x1EBAA, offset: 0x1EBAA, size: 0x8, addend: 0x0, symName: __ZNSt3__110unique_ptrIP8locationNS_22__allocator_destructorINS_9allocatorIS1_EEEEEC2B7v160006ILb1EvEES2_NS_16__dependent_typeINS_27__unique_ptr_deleter_sfinaeIS6_EEXT_EE20__good_rval_ref_typeE, symObjAddr: 0x25084, symBinAddr: 0x100025CD8, symSize: 0x230 }
  - { offsetInCU: 0x1EC01, offset: 0x1EC01, size: 0x8, addend: 0x0, symName: __ZNSt3__117__compressed_pairIP8locationNS_22__allocator_destructorINS_9allocatorIS1_EEEEEC1B7v160006IRS2_S6_EEOT_OT0_, symObjAddr: 0x252B4, symBinAddr: 0x100025F08, symSize: 0x3C }
  - { offsetInCU: 0x1EC59, offset: 0x1EC59, size: 0x8, addend: 0x0, symName: __ZNSt3__117__compressed_pairIP8locationNS_22__allocator_destructorINS_9allocatorIS1_EEEEEC2B7v160006IRS2_S6_EEOT_OT0_, symObjAddr: 0x252F0, symBinAddr: 0x100025F44, symSize: 0x48 }
  - { offsetInCU: 0x1ECB1, offset: 0x1ECB1, size: 0x8, addend: 0x0, symName: __ZNSt3__122__compressed_pair_elemIP8locationLi0ELb0EEC2B7v160006IRS2_vEEOT_, symObjAddr: 0x25338, symBinAddr: 0x100025F8C, symSize: 0xB0 }
  - { offsetInCU: 0x1ECF3, offset: 0x1ECF3, size: 0x8, addend: 0x0, symName: __ZNSt3__122__compressed_pair_elemINS_22__allocator_destructorINS_9allocatorI8locationEEEELi1ELb0EEC2B7v160006IS5_vEEOT_, symObjAddr: 0x253E8, symBinAddr: 0x10002603C, symSize: 0x38 }
  - { offsetInCU: 0x1ED35, offset: 0x1ED35, size: 0x8, addend: 0x0, symName: __ZNKSt3__117__compressed_pairIP8locationNS_22__allocator_destructorINS_9allocatorIS1_EEEEE5firstB7v160006Ev, symObjAddr: 0x25420, symBinAddr: 0x100026074, symSize: 0x24 }
  - { offsetInCU: 0x1ED5B, offset: 0x1ED5B, size: 0x8, addend: 0x0, symName: __ZNKSt3__122__compressed_pair_elemIP8locationLi0ELb0EE5__getB7v160006Ev, symObjAddr: 0x25444, symBinAddr: 0x100026098, symSize: 0x14 }
  - { offsetInCU: 0x1ED81, offset: 0x1ED81, size: 0x8, addend: 0x0, symName: __ZNSt3__117__compressed_pairIP8locationNS_22__allocator_destructorINS_9allocatorIS1_EEEEE5firstB7v160006Ev, symObjAddr: 0x25458, symBinAddr: 0x1000260AC, symSize: 0x24 }
  - { offsetInCU: 0x1EDA7, offset: 0x1EDA7, size: 0x8, addend: 0x0, symName: __ZNSt3__122__compressed_pair_elemIP8locationLi0ELb0EE5__getB7v160006Ev, symObjAddr: 0x2547C, symBinAddr: 0x1000260D0, symSize: 0x14 }
  - { offsetInCU: 0x1EDCD, offset: 0x1EDCD, size: 0x8, addend: 0x0, symName: __ZNSt3__117__compressed_pairIPP8locationNS_9allocatorIS2_EEE5firstB7v160006Ev, symObjAddr: 0x25490, symBinAddr: 0x1000260E4, symSize: 0x24 }
  - { offsetInCU: 0x1EDF3, offset: 0x1EDF3, size: 0x8, addend: 0x0, symName: __ZNSt3__122__compressed_pair_elemIPP8locationLi0ELb0EE5__getB7v160006Ev, symObjAddr: 0x254B4, symBinAddr: 0x100026108, symSize: 0x14 }
  - { offsetInCU: 0x1EE19, offset: 0x1EE19, size: 0x8, addend: 0x0, symName: __ZNSt3__117__compressed_pairIPP8locationRNS_9allocatorIS2_EEE5firstB7v160006Ev, symObjAddr: 0x254C8, symBinAddr: 0x10002611C, symSize: 0x24 }
  - { offsetInCU: 0x1EE3F, offset: 0x1EE3F, size: 0x8, addend: 0x0, symName: __ZNSt3__110unique_ptrIP8locationNS_22__allocator_destructorINS_9allocatorIS1_EEEEED2B7v160006Ev, symObjAddr: 0x254EC, symBinAddr: 0x100026140, symSize: 0x30 }
  - { offsetInCU: 0x1EE69, offset: 0x1EE69, size: 0x8, addend: 0x0, symName: __ZNSt3__110unique_ptrIP8locationNS_22__allocator_destructorINS_9allocatorIS1_EEEEE5resetB7v160006ES2_, symObjAddr: 0x2551C, symBinAddr: 0x100026170, symSize: 0xEC }
  - { offsetInCU: 0x1EEAD, offset: 0x1EEAD, size: 0x8, addend: 0x0, symName: __ZNSt3__117__compressed_pairIP8locationNS_22__allocator_destructorINS_9allocatorIS1_EEEEE6secondB7v160006Ev, symObjAddr: 0x25608, symBinAddr: 0x10002625C, symSize: 0x28 }
  - { offsetInCU: 0x1EED3, offset: 0x1EED3, size: 0x8, addend: 0x0, symName: __ZNSt3__122__allocator_destructorINS_9allocatorI8locationEEEclB7v160006EPS2_, symObjAddr: 0x25630, symBinAddr: 0x100026284, symSize: 0xB8 }
  - { offsetInCU: 0x1EF07, offset: 0x1EF07, size: 0x8, addend: 0x0, symName: __ZNSt3__122__compressed_pair_elemINS_22__allocator_destructorINS_9allocatorI8locationEEEELi1ELb0EE5__getB7v160006Ev, symObjAddr: 0x256E8, symBinAddr: 0x10002633C, symSize: 0x14 }
  - { offsetInCU: 0x1EF2D, offset: 0x1EF2D, size: 0x8, addend: 0x0, symName: __ZNSt3__114__split_bufferIP8locationRNS_9allocatorIS2_EEED2Ev, symObjAddr: 0x256FC, symBinAddr: 0x100026350, symSize: 0xEC }
  - { offsetInCU: 0x1EF59, offset: 0x1EF59, size: 0x8, addend: 0x0, symName: __ZNSt3__114__split_bufferIP8locationRNS_9allocatorIS2_EEE5clearB7v160006Ev, symObjAddr: 0x257E8, symBinAddr: 0x10002643C, symSize: 0x68 }
  - { offsetInCU: 0x1EF7F, offset: 0x1EF7F, size: 0x8, addend: 0x0, symName: __ZNKSt3__114__split_bufferIP8locationRNS_9allocatorIS2_EEE8capacityB7v160006Ev, symObjAddr: 0x25850, symBinAddr: 0x1000264A4, symSize: 0xBC }
  - { offsetInCU: 0x1EFA5, offset: 0x1EFA5, size: 0x8, addend: 0x0, symName: __ZNSt3__114__split_bufferIP8locationRNS_9allocatorIS2_EEE17__destruct_at_endB7v160006EPS2_, symObjAddr: 0x2590C, symBinAddr: 0x100026560, symSize: 0x2C }
  - { offsetInCU: 0x1EFD9, offset: 0x1EFD9, size: 0x8, addend: 0x0, symName: __ZNSt3__114__split_bufferIP8locationRNS_9allocatorIS2_EEE17__destruct_at_endB7v160006EPS2_NS_17integral_constantIbLb0EEE, symObjAddr: 0x25938, symBinAddr: 0x10002658C, symSize: 0x120 }
  - { offsetInCU: 0x1F019, offset: 0x1F019, size: 0x8, addend: 0x0, symName: __ZNKSt3__114__split_bufferIP8locationRNS_9allocatorIS2_EEE9__end_capB7v160006Ev, symObjAddr: 0x25A58, symBinAddr: 0x1000266AC, symSize: 0x28 }
  - { offsetInCU: 0x1F03F, offset: 0x1F03F, size: 0x8, addend: 0x0, symName: __ZNKSt3__117__compressed_pairIPP8locationRNS_9allocatorIS2_EEE5firstB7v160006Ev, symObjAddr: 0x25A80, symBinAddr: 0x1000266D4, symSize: 0x24 }
  - { offsetInCU: 0x1F065, offset: 0x1F065, size: 0x8, addend: 0x0, symName: __ZNSt3__19allocatorI8locationE9constructB7v160006IS1_JRKS1_EEEvPT_DpOT0_, symObjAddr: 0x25AA4, symBinAddr: 0x1000266F8, symSize: 0x30 }
  - { offsetInCU: 0x1F0BB, offset: 0x1F0BB, size: 0x8, addend: 0x0, symName: __ZN8locationC1ERKS_, symObjAddr: 0x25AD4, symBinAddr: 0x100026728, symSize: 0x34 }
  - { offsetInCU: 0x1F0F0, offset: 0x1F0F0, size: 0x8, addend: 0x0, symName: __ZN8locationC2ERKS_, symObjAddr: 0x25B08, symBinAddr: 0x10002675C, symSize: 0x228 }
  - { offsetInCU: 0x1F125, offset: 0x1F125, size: 0x8, addend: 0x0, symName: __ZNSt3__15dequeINS_12basic_stringIcNS_11char_traitsIcEENS_9allocatorIcEEEENS4_IS6_EEEC1ERKS8_, symObjAddr: 0x25D30, symBinAddr: 0x100026984, symSize: 0x34 }
  - { offsetInCU: 0x1F160, offset: 0x1F160, size: 0x8, addend: 0x0, symName: __ZNSt3__15dequeINS_12basic_stringIcNS_11char_traitsIcEENS_9allocatorIcEEEENS4_IS6_EEEC2ERKS8_, symObjAddr: 0x25D64, symBinAddr: 0x1000269B8, symSize: 0x540 }
  - { offsetInCU: 0x1F19D, offset: 0x1F19D, size: 0x8, addend: 0x0, symName: __ZNSt3__116allocator_traitsINS_9allocatorINS_12basic_stringIcNS_11char_traitsIcEENS1_IcEEEEEEE37select_on_container_copy_constructionB7v160006IS7_vvEES7_RKS7_, symObjAddr: 0x262A4, symBinAddr: 0x100026EF8, symSize: 0x10 }
  - { offsetInCU: 0x1F1CC, offset: 0x1F1CC, size: 0x8, addend: 0x0, symName: __ZNKSt3__15dequeINS_12basic_stringIcNS_11char_traitsIcEENS_9allocatorIcEEEENS4_IS6_EEE7__allocB7v160006Ev, symObjAddr: 0x262B4, symBinAddr: 0x100026F08, symSize: 0x28 }
  - { offsetInCU: 0x1F1F2, offset: 0x1F1F2, size: 0x8, addend: 0x0, symName: __ZNSt3__19allocatorIPNS_12basic_stringIcNS_11char_traitsIcEENS0_IcEEEEEC1B7v160006IS5_EERKNS0_IT_EE, symObjAddr: 0x262DC, symBinAddr: 0x100026F30, symSize: 0x34 }
  - { offsetInCU: 0x1F22F, offset: 0x1F22F, size: 0x8, addend: 0x0, symName: __ZNSt3__114__split_bufferIPNS_12basic_stringIcNS_11char_traitsIcEENS_9allocatorIcEEEENS4_IS7_EEEC1ERKS8_, symObjAddr: 0x26310, symBinAddr: 0x100026F64, symSize: 0x34 }
  - { offsetInCU: 0x1F269, offset: 0x1F269, size: 0x8, addend: 0x0, symName: __ZNSt3__117__compressed_pairImNS_9allocatorINS_12basic_stringIcNS_11char_traitsIcEENS1_IcEEEEEEEC1B7v160006IiRNS1_IPS6_EEEEOT_OT0_, symObjAddr: 0x26344, symBinAddr: 0x100026F98, symSize: 0x3C }
  - { offsetInCU: 0x1F2C6, offset: 0x1F2C6, size: 0x8, addend: 0x0, symName: __ZNSt3__15dequeINS_12basic_stringIcNS_11char_traitsIcEENS_9allocatorIcEEEENS4_IS6_EEE8__appendINS_16__deque_iteratorIS6_PKS6_RSB_PKSC_lLl170EEEEEvT_SH_PNS_9enable_ifIXsr27__is_cpp17_forward_iteratorISH_EE5valueEvE4typeE, symObjAddr: 0x26380, symBinAddr: 0x100026FD4, symSize: 0x968 }
  - { offsetInCU: 0x1F3CF, offset: 0x1F3CF, size: 0x8, addend: 0x0, symName: __ZNKSt3__15dequeINS_12basic_stringIcNS_11char_traitsIcEENS_9allocatorIcEEEENS4_IS6_EEE5beginB7v160006Ev, symObjAddr: 0x26CE8, symBinAddr: 0x10002793C, symSize: 0x330 }
  - { offsetInCU: 0x1F406, offset: 0x1F406, size: 0x8, addend: 0x0, symName: __ZNKSt3__15dequeINS_12basic_stringIcNS_11char_traitsIcEENS_9allocatorIcEEEENS4_IS6_EEE3endB7v160006Ev, symObjAddr: 0x27018, symBinAddr: 0x100027C6C, symSize: 0x308 }
  - { offsetInCU: 0x1F44D, offset: 0x1F44D, size: 0x8, addend: 0x0, symName: __ZNKSt3__117__compressed_pairImNS_9allocatorINS_12basic_stringIcNS_11char_traitsIcEENS1_IcEEEEEEE6secondB7v160006Ev, symObjAddr: 0x27320, symBinAddr: 0x100027F74, symSize: 0x24 }
  - { offsetInCU: 0x1F473, offset: 0x1F473, size: 0x8, addend: 0x0, symName: __ZNKSt3__122__compressed_pair_elemINS_9allocatorINS_12basic_stringIcNS_11char_traitsIcEENS1_IcEEEEEELi1ELb1EE5__getB7v160006Ev, symObjAddr: 0x27344, symBinAddr: 0x100027F98, symSize: 0x14 }
  - { offsetInCU: 0x1F499, offset: 0x1F499, size: 0x8, addend: 0x0, symName: __ZNSt3__19allocatorIPNS_12basic_stringIcNS_11char_traitsIcEENS0_IcEEEEEC2B7v160006IS5_EERKNS0_IT_EE, symObjAddr: 0x27358, symBinAddr: 0x100027FAC, symSize: 0x30 }
  - { offsetInCU: 0x1F4D6, offset: 0x1F4D6, size: 0x8, addend: 0x0, symName: __ZNSt3__114__split_bufferIPNS_12basic_stringIcNS_11char_traitsIcEENS_9allocatorIcEEEENS4_IS7_EEEC2ERKS8_, symObjAddr: 0x27388, symBinAddr: 0x100027FDC, symSize: 0x2C8 }
  - { offsetInCU: 0x1F512, offset: 0x1F512, size: 0x8, addend: 0x0, symName: __ZNSt3__117__compressed_pairIPPNS_12basic_stringIcNS_11char_traitsIcEENS_9allocatorIcEEEENS4_IS7_EEEC1B7v160006IDnRKS9_EEOT_OT0_, symObjAddr: 0x27650, symBinAddr: 0x1000282A4, symSize: 0x3C }
  - { offsetInCU: 0x1F56A, offset: 0x1F56A, size: 0x8, addend: 0x0, symName: __ZNSt3__117__compressed_pairIPPNS_12basic_stringIcNS_11char_traitsIcEENS_9allocatorIcEEEENS4_IS7_EEEC2B7v160006IDnRKS9_EEOT_OT0_, symObjAddr: 0x2768C, symBinAddr: 0x1000282E0, symSize: 0x44 }
  - { offsetInCU: 0x1F5C2, offset: 0x1F5C2, size: 0x8, addend: 0x0, symName: __ZNSt3__122__compressed_pair_elemINS_9allocatorIPNS_12basic_stringIcNS_11char_traitsIcEENS1_IcEEEEEELi1ELb1EEC2B7v160006IRKS8_vEEOT_, symObjAddr: 0x276D0, symBinAddr: 0x100028324, symSize: 0x18 }
  - { offsetInCU: 0x1F604, offset: 0x1F604, size: 0x8, addend: 0x0, symName: __ZNSt3__117__compressed_pairImNS_9allocatorINS_12basic_stringIcNS_11char_traitsIcEENS1_IcEEEEEEEC2B7v160006IiRNS1_IPS6_EEEEOT_OT0_, symObjAddr: 0x276E8, symBinAddr: 0x10002833C, symSize: 0x44 }
  - { offsetInCU: 0x1F65C, offset: 0x1F65C, size: 0x8, addend: 0x0, symName: __ZNSt3__122__compressed_pair_elemINS_9allocatorINS_12basic_stringIcNS_11char_traitsIcEENS1_IcEEEEEELi1ELb1EEC2B7v160006IRNS1_IPS6_EEvEEOT_, symObjAddr: 0x2772C, symBinAddr: 0x100028380, symSize: 0x34 }
  - { offsetInCU: 0x1F69E, offset: 0x1F69E, size: 0x8, addend: 0x0, symName: __ZNSt3__19allocatorINS_12basic_stringIcNS_11char_traitsIcEENS0_IcEEEEEC2B7v160006IPS5_EERKNS0_IT_EE, symObjAddr: 0x27760, symBinAddr: 0x1000283B4, symSize: 0x30 }
  - { offsetInCU: 0x1F6DB, offset: 0x1F6DB, size: 0x8, addend: 0x0, symName: __ZNSt3__15dequeINS_12basic_stringIcNS_11char_traitsIcEENS_9allocatorIcEEEENS4_IS6_EEE19__add_back_capacityEm, symObjAddr: 0x27AEC, symBinAddr: 0x100028740, symSize: 0x1250 }
  - { offsetInCU: 0x1F7DB, offset: 0x1F7DB, size: 0x8, addend: 0x0, symName: __ZNKSt3__116__deque_iteratorINS_12basic_stringIcNS_11char_traitsIcEENS_9allocatorIcEEEEPS6_RS6_PS7_lLl170EEplB7v160006El, symObjAddr: 0x28D3C, symBinAddr: 0x100029990, symSize: 0x218 }
  - { offsetInCU: 0x1F848, offset: 0x1F848, size: 0x8, addend: 0x0, symName: __ZNSt3__15dequeINS_12basic_stringIcNS_11char_traitsIcEENS_9allocatorIcEEEENS4_IS6_EEE13__deque_rangeC1B7v160006ENS_16__deque_iteratorIS6_PS6_RS6_PSB_lLl170EEESE_, symObjAddr: 0x28F54, symBinAddr: 0x100029BA8, symSize: 0x310 }
  - { offsetInCU: 0x1F899, offset: 0x1F899, size: 0x8, addend: 0x0, symName: __ZNKSt3__15dequeINS_12basic_stringIcNS_11char_traitsIcEENS_9allocatorIcEEEENS4_IS6_EEE13__deque_range5beginB7v160006Ev, symObjAddr: 0x29264, symBinAddr: 0x100029EB8, symSize: 0x34 }
  - { offsetInCU: 0x1F8BF, offset: 0x1F8BF, size: 0x8, addend: 0x0, symName: __ZNKSt3__15dequeINS_12basic_stringIcNS_11char_traitsIcEENS_9allocatorIcEEEENS4_IS6_EEE13__deque_range3endB7v160006Ev, symObjAddr: 0x29298, symBinAddr: 0x100029EEC, symSize: 0x29C }
  - { offsetInCU: 0x1F8E6, offset: 0x1F8E6, size: 0x8, addend: 0x0, symName: __ZNKSt3__15dequeINS_12basic_stringIcNS_11char_traitsIcEENS_9allocatorIcEEEENS4_IS6_EEE13__deque_rangedeB7v160006Ev, symObjAddr: 0x29568, symBinAddr: 0x10002A1BC, symSize: 0x3CC }
  - { offsetInCU: 0x1F921, offset: 0x1F921, size: 0x8, addend: 0x0, symName: __ZNSt3__15dequeINS_12basic_stringIcNS_11char_traitsIcEENS_9allocatorIcEEEENS4_IS6_EEE21_ConstructTransactionC1B7v160006EPS8_RNS8_19__deque_block_rangeE, symObjAddr: 0x29934, symBinAddr: 0x10002A588, symSize: 0x3C }
  - { offsetInCU: 0x1F969, offset: 0x1F969, size: 0x8, addend: 0x0, symName: __ZNKSt3__116__deque_iteratorINS_12basic_stringIcNS_11char_traitsIcEENS_9allocatorIcEEEEPKS6_RS7_PKS8_lLl170EEdeB7v160006Ev, symObjAddr: 0x29984, symBinAddr: 0x10002A5D8, symSize: 0x64 }
  - { offsetInCU: 0x1F98F, offset: 0x1F98F, size: 0x8, addend: 0x0, symName: __ZNSt3__116__deque_iteratorINS_12basic_stringIcNS_11char_traitsIcEENS_9allocatorIcEEEEPKS6_RS7_PKS8_lLl170EEppB7v160006Ev, symObjAddr: 0x299E8, symBinAddr: 0x10002A63C, symSize: 0x1F8 }
  - { offsetInCU: 0x1F9B5, offset: 0x1F9B5, size: 0x8, addend: 0x0, symName: __ZNSt3__15dequeINS_12basic_stringIcNS_11char_traitsIcEENS_9allocatorIcEEEENS4_IS6_EEE21_ConstructTransactionD1B7v160006Ev, symObjAddr: 0x29BE0, symBinAddr: 0x10002A834, symSize: 0x2C }
  - { offsetInCU: 0x1F9DF, offset: 0x1F9DF, size: 0x8, addend: 0x0, symName: __ZNSt3__15dequeINS_12basic_stringIcNS_11char_traitsIcEENS_9allocatorIcEEEENS4_IS6_EEE13__deque_rangeppB7v160006Ev, symObjAddr: 0x29C0C, symBinAddr: 0x10002A860, symSize: 0x1C0 }
  - { offsetInCU: 0x1FA05, offset: 0x1FA05, size: 0x8, addend: 0x0, symName: __ZNSt3__15dequeINS_12basic_stringIcNS_11char_traitsIcEENS_9allocatorIcEEEENS4_IS6_EEE18__recommend_blocksB7v160006Em, symObjAddr: 0x2A3CC, symBinAddr: 0x10002B020, symSize: 0x40 }
  - { offsetInCU: 0x1FA29, offset: 0x1FA29, size: 0x8, addend: 0x0, symName: __ZNSt3__114__split_bufferIPNS_12basic_stringIcNS_11char_traitsIcEENS_9allocatorIcEEEERNS4_IS7_EEE5beginB7v160006Ev, symObjAddr: 0x2A438, symBinAddr: 0x10002B08C, symSize: 0x64 }
  - { offsetInCU: 0x1FA4F, offset: 0x1FA4F, size: 0x8, addend: 0x0, symName: __ZNSt3__114__split_bufferIPNS_12basic_stringIcNS_11char_traitsIcEENS_9allocatorIcEEEERNS4_IS7_EEE3endB7v160006Ev, symObjAddr: 0x2A49C, symBinAddr: 0x10002B0F0, symSize: 0x64 }
  - { offsetInCU: 0x1FA75, offset: 0x1FA75, size: 0x8, addend: 0x0, symName: __ZNSt3__114__split_bufferIPNS_12basic_stringIcNS_11char_traitsIcEENS_9allocatorIcEEEERNS4_IS7_EEE9push_backB7v160006ERKS7_, symObjAddr: 0x2A500, symBinAddr: 0x10002B154, symSize: 0xA50 }
  - { offsetInCU: 0x1FAF4, offset: 0x1FAF4, size: 0x8, addend: 0x0, symName: __ZNSt3__116__deque_iteratorINS_12basic_stringIcNS_11char_traitsIcEENS_9allocatorIcEEEEPS6_RS6_PS7_lLl170EEpLB7v160006El, symObjAddr: 0x2B138, symBinAddr: 0x10002BD8C, symSize: 0x3A0 }
  - { offsetInCU: 0x1FB46, offset: 0x1FB46, size: 0x8, addend: 0x0, symName: __ZNSt3__15dequeINS_12basic_stringIcNS_11char_traitsIcEENS_9allocatorIcEEEENS4_IS6_EEE13__deque_rangeC2B7v160006ENS_16__deque_iteratorIS6_PS6_RS6_PSB_lLl170EEESE_, symObjAddr: 0x2B4D8, symBinAddr: 0x10002C12C, symSize: 0x2A4 }
  - { offsetInCU: 0x1FB97, offset: 0x1FB97, size: 0x8, addend: 0x0, symName: __ZNSt3__15dequeINS_12basic_stringIcNS_11char_traitsIcEENS_9allocatorIcEEEENS4_IS6_EEE19__deque_block_rangeC1B7v160006EPS6_SA_, symObjAddr: 0x2B86C, symBinAddr: 0x10002C4C0, symSize: 0x3C }
  - { offsetInCU: 0x1FBDF, offset: 0x1FBDF, size: 0x8, addend: 0x0, symName: __ZNSt3__15dequeINS_12basic_stringIcNS_11char_traitsIcEENS_9allocatorIcEEEENS4_IS6_EEE19__deque_block_rangeC2B7v160006EPS6_SA_, symObjAddr: 0x2B8A8, symBinAddr: 0x10002C4FC, symSize: 0xBC }
  - { offsetInCU: 0x1FC27, offset: 0x1FC27, size: 0x8, addend: 0x0, symName: __ZNSt3__15dequeINS_12basic_stringIcNS_11char_traitsIcEENS_9allocatorIcEEEENS4_IS6_EEE21_ConstructTransactionC2B7v160006EPS8_RNS8_19__deque_block_rangeE, symObjAddr: 0x2B964, symBinAddr: 0x10002C5B8, symSize: 0x204 }
  - { offsetInCU: 0x1FC6F, offset: 0x1FC6F, size: 0x8, addend: 0x0, symName: __ZNSt3__15dequeINS_12basic_stringIcNS_11char_traitsIcEENS_9allocatorIcEEEENS4_IS6_EEE21_ConstructTransactionD2B7v160006Ev, symObjAddr: 0x2BB68, symBinAddr: 0x10002C7BC, symSize: 0x138 }
  - { offsetInCU: 0x1FC99, offset: 0x1FC99, size: 0x8, addend: 0x0, symName: __ZNKSt3__114__split_bufferIPNS_12basic_stringIcNS_11char_traitsIcEENS_9allocatorIcEEEENS4_IS7_EEE5beginB7v160006Ev, symObjAddr: 0x2BCA0, symBinAddr: 0x10002C8F4, symSize: 0x64 }
  - { offsetInCU: 0x1FCBF, offset: 0x1FCBF, size: 0x8, addend: 0x0, symName: __ZNSt3__116__deque_iteratorINS_12basic_stringIcNS_11char_traitsIcEENS_9allocatorIcEEEEPKS6_RS7_PKS8_lLl170EEC1B7v160006ESB_S8_, symObjAddr: 0x2BD04, symBinAddr: 0x10002C958, symSize: 0x3C }
  - { offsetInCU: 0x1FD07, offset: 0x1FD07, size: 0x8, addend: 0x0, symName: __ZNSt3__116__deque_iteratorINS_12basic_stringIcNS_11char_traitsIcEENS_9allocatorIcEEEEPKS6_RS7_PKS8_lLl170EEC2B7v160006ESB_S8_, symObjAddr: 0x2BD40, symBinAddr: 0x10002C994, symSize: 0xBC }
  - { offsetInCU: 0x1FD4F, offset: 0x1FD4F, size: 0x8, addend: 0x0, symName: __ZNKSt3__114__split_bufferIP8locationNS_9allocatorIS2_EEE5emptyB7v160006Ev, symObjAddr: 0x2BDFC, symBinAddr: 0x10002CA50, symSize: 0xB4 }
  - { offsetInCU: 0x1FD75, offset: 0x1FD75, size: 0x8, addend: 0x0, symName: __ZNSt3__116__deque_iteratorI8locationPS1_RS1_PS2_lLl16EEC1B7v160006ES4_S2_, symObjAddr: 0x2BEB0, symBinAddr: 0x10002CB04, symSize: 0x3C }
  - { offsetInCU: 0x1FDBD, offset: 0x1FDBD, size: 0x8, addend: 0x0, symName: __ZNSt3__116__deque_iteratorI8locationPS1_RS1_PS2_lLl16EEC2B7v160006ES4_S2_, symObjAddr: 0x2BEEC, symBinAddr: 0x10002CB40, symSize: 0xBC }
  - { offsetInCU: 0x1FE05, offset: 0x1FE05, size: 0x8, addend: 0x0, symName: __ZNSt3__117__compressed_pairImNS_9allocatorI8locationEEE5firstB7v160006Ev, symObjAddr: 0x2BFA8, symBinAddr: 0x10002CBFC, symSize: 0x24 }
  - { offsetInCU: 0x1FE2B, offset: 0x1FE2B, size: 0x8, addend: 0x0, symName: __ZNSt3__15dequeINS_12basic_stringIcNS_11char_traitsIcEENS_9allocatorIcEEEENS4_IS6_EEE5beginB7v160006Ev, symObjAddr: 0x2BFCC, symBinAddr: 0x10002CC20, symSize: 0x330 }
  - { offsetInCU: 0x1FE62, offset: 0x1FE62, size: 0x8, addend: 0x0, symName: __ZNSt3__116allocator_traitsINS_9allocatorINS_12basic_stringIcNS_11char_traitsIcEENS1_IcEEEEEEE7destroyB7v160006IS6_vEEvRS7_PT_, symObjAddr: 0x2C330, symBinAddr: 0x10002CF84, symSize: 0x2C }
  - { offsetInCU: 0x1FE9F, offset: 0x1FE9F, size: 0x8, addend: 0x0, symName: __ZNSt3__116__deque_iteratorINS_12basic_stringIcNS_11char_traitsIcEENS_9allocatorIcEEEEPS6_RS6_PS7_lLl170EEppB7v160006Ev, symObjAddr: 0x2C35C, symBinAddr: 0x10002CFB0, symSize: 0x1F8 }
  - { offsetInCU: 0x1FEC5, offset: 0x1FEC5, size: 0x8, addend: 0x0, symName: __ZNSt3__19allocatorINS_12basic_stringIcNS_11char_traitsIcEENS0_IcEEEEE7destroyB7v160006EPS5_, symObjAddr: 0x2C554, symBinAddr: 0x10002D1A8, symSize: 0x28 }
  - { offsetInCU: 0x1FEF9, offset: 0x1FEF9, size: 0x8, addend: 0x0, symName: __ZNSt3__111char_traitsIcE6assignERcRKc, symObjAddr: 0x2C58C, symBinAddr: 0x10002D1E0, symSize: 0xF4 }
  - { offsetInCU: 0x1FF2A, offset: 0x1FF2A, size: 0x8, addend: 0x0, symName: __ZNSt3__112basic_stringIcNS_11char_traitsIcEENS_9allocatorIcEEE18__get_long_pointerB7v160006Ev, symObjAddr: 0x2C680, symBinAddr: 0x10002D2D4, symSize: 0x6C }
  - { offsetInCU: 0x1FF50, offset: 0x1FF50, size: 0x8, addend: 0x0, symName: __ZNSt3__112basic_stringIcNS_11char_traitsIcEENS_9allocatorIcEEE19__get_short_pointerB7v160006Ev, symObjAddr: 0x2C6EC, symBinAddr: 0x10002D340, symSize: 0x28 }
  - { offsetInCU: 0x1FF76, offset: 0x1FF76, size: 0x8, addend: 0x0, symName: __ZNSt3__112basic_stringIcNS_11char_traitsIcEENS_9allocatorIcEEE16__set_short_sizeB7v160006Em, symObjAddr: 0x2C714, symBinAddr: 0x10002D368, symSize: 0x130 }
  - { offsetInCU: 0x1FFAB, offset: 0x1FFAB, size: 0x8, addend: 0x0, symName: __ZNSt3__114pointer_traitsIPcE10pointer_toB7v160006ERc, symObjAddr: 0x2C844, symBinAddr: 0x10002D498, symSize: 0x14 }
  - { offsetInCU: 0x1FFCE, offset: 0x1FFCE, size: 0x8, addend: 0x0, symName: __ZNKSt3__15dequeI6serverNS_9allocatorIS1_EEE12__back_spareB7v160006Ev, symObjAddr: 0x2C858, symBinAddr: 0x10002D4AC, symSize: 0x90 }
  - { offsetInCU: 0x1FFF4, offset: 0x1FFF4, size: 0x8, addend: 0x0, symName: __ZNSt3__15dequeI6serverNS_9allocatorIS1_EEE19__add_back_capacityEv, symObjAddr: 0x2C8E8, symBinAddr: 0x10002D53C, symSize: 0xA1C }
  - { offsetInCU: 0x200AC, offset: 0x200AC, size: 0x8, addend: 0x0, symName: __ZNSt3__116allocator_traitsINS_9allocatorI6serverEEE9constructB7v160006IS2_JRKS2_EvEEvRS3_PT_DpOT0_, symObjAddr: 0x2D304, symBinAddr: 0x10002DF58, symSize: 0x34 }
  - { offsetInCU: 0x20103, offset: 0x20103, size: 0x8, addend: 0x0, symName: __ZNKSt3__15dequeI6serverNS_9allocatorIS1_EEE10__capacityB7v160006Ev, symObjAddr: 0x2D338, symBinAddr: 0x10002DF8C, symSize: 0x64 }
  - { offsetInCU: 0x20129, offset: 0x20129, size: 0x8, addend: 0x0, symName: __ZNKSt3__15dequeI6serverNS_9allocatorIS1_EEE13__front_spareB7v160006Ev, symObjAddr: 0x2D39C, symBinAddr: 0x10002DFF0, symSize: 0x64 }
  - { offsetInCU: 0x2014F, offset: 0x2014F, size: 0x8, addend: 0x0, symName: __ZNSt3__114__split_bufferIP6serverNS_9allocatorIS2_EEE9push_backB7v160006ERKS2_, symObjAddr: 0x2D400, symBinAddr: 0x10002E054, symSize: 0xA60 }
  - { offsetInCU: 0x201CE, offset: 0x201CE, size: 0x8, addend: 0x0, symName: __ZNKSt3__114__split_bufferIP6serverNS_9allocatorIS2_EEE12__back_spareB7v160006Ev, symObjAddr: 0x2DE60, symBinAddr: 0x10002EAB4, symSize: 0xC0 }
  - { offsetInCU: 0x201F4, offset: 0x201F4, size: 0x8, addend: 0x0, symName: __ZNSt3__114__split_bufferIP6serverNS_9allocatorIS2_EEE9push_backEOS2_, symObjAddr: 0x2DF20, symBinAddr: 0x10002EB74, symSize: 0xA60 }
  - { offsetInCU: 0x20273, offset: 0x20273, size: 0x8, addend: 0x0, symName: __ZNSt3__116allocator_traitsINS_9allocatorI6serverEEE8allocateB7v160006ERS3_m, symObjAddr: 0x2E980, symBinAddr: 0x10002F5D4, symSize: 0x2C }
  - { offsetInCU: 0x202A6, offset: 0x202A6, size: 0x8, addend: 0x0, symName: __ZNSt3__114__split_bufferIP6serverNS_9allocatorIS2_EEE10push_frontEOS2_, symObjAddr: 0x2E9AC, symBinAddr: 0x10002F600, symSize: 0xA64 }
  - { offsetInCU: 0x20325, offset: 0x20325, size: 0x8, addend: 0x0, symName: __ZNSt3__114__split_bufferIP6serverRNS_9allocatorIS2_EEEC1EmmS5_, symObjAddr: 0x2F410, symBinAddr: 0x100030064, symSize: 0x44 }
  - { offsetInCU: 0x20380, offset: 0x20380, size: 0x8, addend: 0x0, symName: __ZNSt3__122__allocator_destructorINS_9allocatorI6serverEEEC1B7v160006ERS3_m, symObjAddr: 0x2F454, symBinAddr: 0x1000300A8, symSize: 0x3C }
  - { offsetInCU: 0x20448, offset: 0x20448, size: 0x8, addend: 0x0, symName: __ZNSt3__110unique_ptrIP6serverNS_22__allocator_destructorINS_9allocatorIS1_EEEEEC1B7v160006ILb1EvEES2_NS_16__dependent_typeINS_27__unique_ptr_deleter_sfinaeIS6_EEXT_EE20__good_rval_ref_typeE, symObjAddr: 0x2F490, symBinAddr: 0x1000300E4, symSize: 0x3C }
  - { offsetInCU: 0x20499, offset: 0x20499, size: 0x8, addend: 0x0, symName: __ZNSt3__114__split_bufferIP6serverRNS_9allocatorIS2_EEE9push_backEOS2_, symObjAddr: 0x2F4CC, symBinAddr: 0x100030120, symSize: 0xA60 }
  - { offsetInCU: 0x20518, offset: 0x20518, size: 0x8, addend: 0x0, symName: __ZNKSt3__110unique_ptrIP6serverNS_22__allocator_destructorINS_9allocatorIS1_EEEEE3getB7v160006Ev, symObjAddr: 0x2FF2C, symBinAddr: 0x100030B80, symSize: 0x6C }
  - { offsetInCU: 0x2053E, offset: 0x2053E, size: 0x8, addend: 0x0, symName: __ZNSt3__110unique_ptrIP6serverNS_22__allocator_destructorINS_9allocatorIS1_EEEEE7releaseB7v160006Ev, symObjAddr: 0x2FF98, symBinAddr: 0x100030BEC, symSize: 0xB8 }
  - { offsetInCU: 0x20573, offset: 0x20573, size: 0x8, addend: 0x0, symName: __ZNSt3__114__split_bufferIP6serverRNS_9allocatorIS2_EEE10push_frontERKS2_, symObjAddr: 0x30050, symBinAddr: 0x100030CA4, symSize: 0xA64 }
  - { offsetInCU: 0x205F2, offset: 0x205F2, size: 0x8, addend: 0x0, symName: __ZNSt3__114__split_bufferIP6serverNS_9allocatorIS2_EEE9__end_capB7v160006Ev, symObjAddr: 0x30BE8, symBinAddr: 0x10003183C, symSize: 0x28 }
  - { offsetInCU: 0x20618, offset: 0x20618, size: 0x8, addend: 0x0, symName: __ZNSt3__114__split_bufferIP6serverRNS_9allocatorIS2_EEE9__end_capB7v160006Ev, symObjAddr: 0x30C10, symBinAddr: 0x100031864, symSize: 0x28 }
  - { offsetInCU: 0x2063E, offset: 0x2063E, size: 0x8, addend: 0x0, symName: __ZNSt3__110unique_ptrIP6serverNS_22__allocator_destructorINS_9allocatorIS1_EEEEED1B7v160006Ev, symObjAddr: 0x30C38, symBinAddr: 0x10003188C, symSize: 0x2C }
  - { offsetInCU: 0x20668, offset: 0x20668, size: 0x8, addend: 0x0, symName: __ZNSt3__114__split_bufferIP6serverRNS_9allocatorIS2_EEED1Ev, symObjAddr: 0x30C64, symBinAddr: 0x1000318B8, symSize: 0x2C }
  - { offsetInCU: 0x20694, offset: 0x20694, size: 0x8, addend: 0x0, symName: __ZNSt3__114__split_bufferIP6serverRNS_9allocatorIS2_EEE18__construct_at_endINS_13move_iteratorIPS2_EEEENS_9enable_ifIXsr27__is_cpp17_forward_iteratorIT_EE5valueEvE4typeESC_SC_, symObjAddr: 0x30EE4, symBinAddr: 0x100031B38, symSize: 0x614 }
  - { offsetInCU: 0x206FD, offset: 0x206FD, size: 0x8, addend: 0x0, symName: __ZNSt3__113move_iteratorIPP6serverEC1B7v160006ES3_, symObjAddr: 0x314F8, symBinAddr: 0x10003214C, symSize: 0x34 }
  - { offsetInCU: 0x20735, offset: 0x20735, size: 0x8, addend: 0x0, symName: __ZNSt3__116allocator_traitsINS_9allocatorIP6serverEEE9constructB7v160006IS3_JRKS3_EvEEvRS4_PT_DpOT0_, symObjAddr: 0x3152C, symBinAddr: 0x100032180, symSize: 0x34 }
  - { offsetInCU: 0x207A5, offset: 0x207A5, size: 0x8, addend: 0x0, symName: __ZNKSt3__114__move_trivialclB7v160006IP6serverS3_Li0EEENS_4pairIPT_PT0_EES6_S6_S8_, symObjAddr: 0x322BC, symBinAddr: 0x100032F10, symSize: 0x230 }
  - { offsetInCU: 0x20811, offset: 0x20811, size: 0x8, addend: 0x0, symName: __ZNSt3__14pairIPP6serverS3_EC1B7v160006ERKS3_S6_, symObjAddr: 0x32D68, symBinAddr: 0x1000339BC, symSize: 0x3C }
  - { offsetInCU: 0x20857, offset: 0x20857, size: 0x8, addend: 0x0, symName: __ZNSt3__14pairIPP6serverS3_EC2B7v160006ERKS3_S6_, symObjAddr: 0x32DA4, symBinAddr: 0x1000339F8, symSize: 0x138 }
  - { offsetInCU: 0x2089D, offset: 0x2089D, size: 0x8, addend: 0x0, symName: __ZNSt3__118__unwrap_iter_implIPP6serverLb1EE8__unwrapB7v160006ES3_, symObjAddr: 0x32EDC, symBinAddr: 0x100033B30, symSize: 0x24 }
  - { offsetInCU: 0x208C0, offset: 0x208C0, size: 0x8, addend: 0x0, symName: __ZNSt3__118__unwrap_iter_implIPP6serverLb1EE8__rewrapB7v160006ES3_S3_, symObjAddr: 0x32F00, symBinAddr: 0x100033B54, symSize: 0x50 }
  - { offsetInCU: 0x208FB, offset: 0x208FB, size: 0x8, addend: 0x0, symName: __ZNSt3__114__split_bufferIP6serverRNS_9allocatorIS2_EEE21_ConstructTransactionC1B7v160006EPPS2_m, symObjAddr: 0x332A0, symBinAddr: 0x100033EF4, symSize: 0x3C }
  - { offsetInCU: 0x20941, offset: 0x20941, size: 0x8, addend: 0x0, symName: __ZNSt3__116allocator_traitsINS_9allocatorIP6serverEEE9constructB7v160006IS3_JS3_EvEEvRS4_PT_DpOT0_, symObjAddr: 0x332DC, symBinAddr: 0x100033F30, symSize: 0x34 }
  - { offsetInCU: 0x20998, offset: 0x20998, size: 0x8, addend: 0x0, symName: __ZNSt3__114__split_bufferIP6serverRNS_9allocatorIS2_EEE7__allocB7v160006Ev, symObjAddr: 0x33310, symBinAddr: 0x100033F64, symSize: 0x28 }
  - { offsetInCU: 0x209BE, offset: 0x209BE, size: 0x8, addend: 0x0, symName: __ZNKSt3__113move_iteratorIPP6serverEdeB7v160006Ev, symObjAddr: 0x33338, symBinAddr: 0x100033F8C, symSize: 0x60 }
  - { offsetInCU: 0x209E4, offset: 0x209E4, size: 0x8, addend: 0x0, symName: __ZNSt3__113move_iteratorIPP6serverEppB7v160006Ev, symObjAddr: 0x33398, symBinAddr: 0x100033FEC, symSize: 0x68 }
  - { offsetInCU: 0x20A0A, offset: 0x20A0A, size: 0x8, addend: 0x0, symName: __ZNSt3__114__split_bufferIP6serverRNS_9allocatorIS2_EEE21_ConstructTransactionD1B7v160006Ev, symObjAddr: 0x33400, symBinAddr: 0x100034054, symSize: 0x2C }
  - { offsetInCU: 0x20A34, offset: 0x20A34, size: 0x8, addend: 0x0, symName: __ZNKSt3__113move_iteratorIPP6serverE4baseB7v160006Ev, symObjAddr: 0x336E8, symBinAddr: 0x10003433C, symSize: 0x60 }
  - { offsetInCU: 0x20A5A, offset: 0x20A5A, size: 0x8, addend: 0x0, symName: __ZNSt3__114__split_bufferIP6serverRNS_9allocatorIS2_EEE21_ConstructTransactionC2B7v160006EPPS2_m, symObjAddr: 0x33748, symBinAddr: 0x10003439C, symSize: 0x184 }
  - { offsetInCU: 0x20AA0, offset: 0x20AA0, size: 0x8, addend: 0x0, symName: __ZNSt3__19allocatorIP6serverE9constructB7v160006IS2_JS2_EEEvPT_DpOT0_, symObjAddr: 0x338CC, symBinAddr: 0x100034520, symSize: 0xB4 }
  - { offsetInCU: 0x20AF6, offset: 0x20AF6, size: 0x8, addend: 0x0, symName: __ZNSt3__117__compressed_pairIPP6serverRNS_9allocatorIS2_EEE6secondB7v160006Ev, symObjAddr: 0x33980, symBinAddr: 0x1000345D4, symSize: 0x28 }
  - { offsetInCU: 0x20B1C, offset: 0x20B1C, size: 0x8, addend: 0x0, symName: __ZNSt3__122__compressed_pair_elemIRNS_9allocatorIP6serverEELi1ELb0EE5__getB7v160006Ev, symObjAddr: 0x339A8, symBinAddr: 0x1000345FC, symSize: 0x60 }
  - { offsetInCU: 0x20B42, offset: 0x20B42, size: 0x8, addend: 0x0, symName: __ZNSt3__114__split_bufferIP6serverRNS_9allocatorIS2_EEE21_ConstructTransactionD2B7v160006Ev, symObjAddr: 0x33A08, symBinAddr: 0x10003465C, symSize: 0xE0 }
  - { offsetInCU: 0x20B6C, offset: 0x20B6C, size: 0x8, addend: 0x0, symName: __ZNSt3__113move_iteratorIPP6serverEC2B7v160006ES3_, symObjAddr: 0x33AE8, symBinAddr: 0x10003473C, symSize: 0x70 }
  - { offsetInCU: 0x20BA4, offset: 0x20BA4, size: 0x8, addend: 0x0, symName: __ZNSt3__19allocatorIP6serverE9constructB7v160006IS2_JRKS2_EEEvPT_DpOT0_, symObjAddr: 0x33B58, symBinAddr: 0x1000347AC, symSize: 0xB4 }
  - { offsetInCU: 0x20BFA, offset: 0x20BFA, size: 0x8, addend: 0x0, symName: __ZNSt3__19allocatorI6serverE8allocateB7v160006Em, symObjAddr: 0x33C0C, symBinAddr: 0x100034860, symSize: 0x90 }
  - { offsetInCU: 0x20C38, offset: 0x20C38, size: 0x8, addend: 0x0, symName: __ZNSt3__116allocator_traitsINS_9allocatorI6serverEEE8max_sizeB7v160006IS3_vEEmRKS3_, symObjAddr: 0x33C9C, symBinAddr: 0x1000348F0, symSize: 0x24 }
  - { offsetInCU: 0x20C66, offset: 0x20C66, size: 0x8, addend: 0x0, symName: __ZNKSt3__19allocatorI6serverE8max_sizeB7v160006Ev, symObjAddr: 0x33CC0, symBinAddr: 0x100034914, symSize: 0x20 }
  - { offsetInCU: 0x20C8C, offset: 0x20C8C, size: 0x8, addend: 0x0, symName: __ZNKSt3__123__move_backward_trivialclB7v160006IP6serverS3_Li0EEENS_4pairIPT_PT0_EES6_S6_S8_, symObjAddr: 0x34940, symBinAddr: 0x100035594, symSize: 0x230 }
  - { offsetInCU: 0x20CF8, offset: 0x20CF8, size: 0x8, addend: 0x0, symName: __ZNSt3__114__split_bufferIP6serverRNS_9allocatorIS2_EEEC2EmmS5_, symObjAddr: 0x3515C, symBinAddr: 0x100035DB0, symSize: 0x520 }
  - { offsetInCU: 0x20D73, offset: 0x20D73, size: 0x8, addend: 0x0, symName: __ZNSt3__117__compressed_pairIPP6serverRNS_9allocatorIS2_EEEC1B7v160006IDnS6_EEOT_OT0_, symObjAddr: 0x3567C, symBinAddr: 0x1000362D0, symSize: 0x3C }
  - { offsetInCU: 0x20DCB, offset: 0x20DCB, size: 0x8, addend: 0x0, symName: __ZNSt3__117__compressed_pairIPP6serverRNS_9allocatorIS2_EEEC2B7v160006IDnS6_EEOT_OT0_, symObjAddr: 0x35944, symBinAddr: 0x100036598, symSize: 0x48 }
  - { offsetInCU: 0x20E23, offset: 0x20E23, size: 0x8, addend: 0x0, symName: __ZNSt3__122__compressed_pair_elemIRNS_9allocatorIP6serverEELi1ELb0EEC2B7v160006IS5_vEEOT_, symObjAddr: 0x3598C, symBinAddr: 0x1000365E0, symSize: 0x70 }
  - { offsetInCU: 0x20E65, offset: 0x20E65, size: 0x8, addend: 0x0, symName: __ZNSt3__19allocatorIP6serverE8allocateB7v160006Em, symObjAddr: 0x359FC, symBinAddr: 0x100036650, symSize: 0x88 }
  - { offsetInCU: 0x20EA3, offset: 0x20EA3, size: 0x8, addend: 0x0, symName: __ZNSt3__116allocator_traitsINS_9allocatorIP6serverEEE8max_sizeB7v160006IS4_vEEmRKS4_, symObjAddr: 0x35A84, symBinAddr: 0x1000366D8, symSize: 0x24 }
  - { offsetInCU: 0x20ED1, offset: 0x20ED1, size: 0x8, addend: 0x0, symName: __ZNKSt3__19allocatorIP6serverE8max_sizeB7v160006Ev, symObjAddr: 0x35AA8, symBinAddr: 0x1000366FC, symSize: 0x14 }
  - { offsetInCU: 0x20EF7, offset: 0x20EF7, size: 0x8, addend: 0x0, symName: __ZNSt3__122__allocator_destructorINS_9allocatorI6serverEEEC2B7v160006ERS3_m, symObjAddr: 0x35ABC, symBinAddr: 0x100036710, symSize: 0xBC }
  - { offsetInCU: 0x20F3D, offset: 0x20F3D, size: 0x8, addend: 0x0, symName: __ZNSt3__110unique_ptrIP6serverNS_22__allocator_destructorINS_9allocatorIS1_EEEEEC2B7v160006ILb1EvEES2_NS_16__dependent_typeINS_27__unique_ptr_deleter_sfinaeIS6_EEXT_EE20__good_rval_ref_typeE, symObjAddr: 0x35B78, symBinAddr: 0x1000367CC, symSize: 0x230 }
  - { offsetInCU: 0x20F94, offset: 0x20F94, size: 0x8, addend: 0x0, symName: __ZNSt3__117__compressed_pairIP6serverNS_22__allocator_destructorINS_9allocatorIS1_EEEEEC1B7v160006IRS2_S6_EEOT_OT0_, symObjAddr: 0x35DA8, symBinAddr: 0x1000369FC, symSize: 0x3C }
  - { offsetInCU: 0x20FEC, offset: 0x20FEC, size: 0x8, addend: 0x0, symName: __ZNSt3__117__compressed_pairIP6serverNS_22__allocator_destructorINS_9allocatorIS1_EEEEEC2B7v160006IRS2_S6_EEOT_OT0_, symObjAddr: 0x35DE4, symBinAddr: 0x100036A38, symSize: 0x48 }
  - { offsetInCU: 0x21044, offset: 0x21044, size: 0x8, addend: 0x0, symName: __ZNSt3__122__compressed_pair_elemIP6serverLi0ELb0EEC2B7v160006IRS2_vEEOT_, symObjAddr: 0x35E2C, symBinAddr: 0x100036A80, symSize: 0xB0 }
  - { offsetInCU: 0x21086, offset: 0x21086, size: 0x8, addend: 0x0, symName: __ZNSt3__122__compressed_pair_elemINS_22__allocator_destructorINS_9allocatorI6serverEEEELi1ELb0EEC2B7v160006IS5_vEEOT_, symObjAddr: 0x35EDC, symBinAddr: 0x100036B30, symSize: 0x38 }
  - { offsetInCU: 0x210C8, offset: 0x210C8, size: 0x8, addend: 0x0, symName: __ZNKSt3__117__compressed_pairIP6serverNS_22__allocator_destructorINS_9allocatorIS1_EEEEE5firstB7v160006Ev, symObjAddr: 0x35F14, symBinAddr: 0x100036B68, symSize: 0x24 }
  - { offsetInCU: 0x210EE, offset: 0x210EE, size: 0x8, addend: 0x0, symName: __ZNKSt3__122__compressed_pair_elemIP6serverLi0ELb0EE5__getB7v160006Ev, symObjAddr: 0x35F38, symBinAddr: 0x100036B8C, symSize: 0x14 }
  - { offsetInCU: 0x21114, offset: 0x21114, size: 0x8, addend: 0x0, symName: __ZNSt3__117__compressed_pairIP6serverNS_22__allocator_destructorINS_9allocatorIS1_EEEEE5firstB7v160006Ev, symObjAddr: 0x35F4C, symBinAddr: 0x100036BA0, symSize: 0x24 }
  - { offsetInCU: 0x2113A, offset: 0x2113A, size: 0x8, addend: 0x0, symName: __ZNSt3__122__compressed_pair_elemIP6serverLi0ELb0EE5__getB7v160006Ev, symObjAddr: 0x35F70, symBinAddr: 0x100036BC4, symSize: 0x14 }
  - { offsetInCU: 0x21160, offset: 0x21160, size: 0x8, addend: 0x0, symName: __ZNSt3__117__compressed_pairIPP6serverNS_9allocatorIS2_EEE5firstB7v160006Ev, symObjAddr: 0x35F84, symBinAddr: 0x100036BD8, symSize: 0x24 }
  - { offsetInCU: 0x21186, offset: 0x21186, size: 0x8, addend: 0x0, symName: __ZNSt3__122__compressed_pair_elemIPP6serverLi0ELb0EE5__getB7v160006Ev, symObjAddr: 0x35FA8, symBinAddr: 0x100036BFC, symSize: 0x14 }
  - { offsetInCU: 0x211AC, offset: 0x211AC, size: 0x8, addend: 0x0, symName: __ZNSt3__117__compressed_pairIPP6serverRNS_9allocatorIS2_EEE5firstB7v160006Ev, symObjAddr: 0x35FBC, symBinAddr: 0x100036C10, symSize: 0x24 }
  - { offsetInCU: 0x211D2, offset: 0x211D2, size: 0x8, addend: 0x0, symName: __ZNSt3__110unique_ptrIP6serverNS_22__allocator_destructorINS_9allocatorIS1_EEEEED2B7v160006Ev, symObjAddr: 0x35FE0, symBinAddr: 0x100036C34, symSize: 0x30 }
  - { offsetInCU: 0x211FC, offset: 0x211FC, size: 0x8, addend: 0x0, symName: __ZNSt3__110unique_ptrIP6serverNS_22__allocator_destructorINS_9allocatorIS1_EEEEE5resetB7v160006ES2_, symObjAddr: 0x36010, symBinAddr: 0x100036C64, symSize: 0xEC }
  - { offsetInCU: 0x21240, offset: 0x21240, size: 0x8, addend: 0x0, symName: __ZNSt3__117__compressed_pairIP6serverNS_22__allocator_destructorINS_9allocatorIS1_EEEEE6secondB7v160006Ev, symObjAddr: 0x360FC, symBinAddr: 0x100036D50, symSize: 0x28 }
  - { offsetInCU: 0x21266, offset: 0x21266, size: 0x8, addend: 0x0, symName: __ZNSt3__122__allocator_destructorINS_9allocatorI6serverEEEclB7v160006EPS2_, symObjAddr: 0x36124, symBinAddr: 0x100036D78, symSize: 0xB8 }
  - { offsetInCU: 0x2129A, offset: 0x2129A, size: 0x8, addend: 0x0, symName: __ZNSt3__122__compressed_pair_elemINS_22__allocator_destructorINS_9allocatorI6serverEEEELi1ELb0EE5__getB7v160006Ev, symObjAddr: 0x361DC, symBinAddr: 0x100036E30, symSize: 0x14 }
  - { offsetInCU: 0x212C0, offset: 0x212C0, size: 0x8, addend: 0x0, symName: __ZNSt3__114__split_bufferIP6serverRNS_9allocatorIS2_EEED2Ev, symObjAddr: 0x361F0, symBinAddr: 0x100036E44, symSize: 0xEC }
  - { offsetInCU: 0x212EC, offset: 0x212EC, size: 0x8, addend: 0x0, symName: __ZNSt3__114__split_bufferIP6serverRNS_9allocatorIS2_EEE5clearB7v160006Ev, symObjAddr: 0x362DC, symBinAddr: 0x100036F30, symSize: 0x68 }
  - { offsetInCU: 0x21312, offset: 0x21312, size: 0x8, addend: 0x0, symName: __ZNKSt3__114__split_bufferIP6serverRNS_9allocatorIS2_EEE8capacityB7v160006Ev, symObjAddr: 0x36344, symBinAddr: 0x100036F98, symSize: 0xBC }
  - { offsetInCU: 0x21338, offset: 0x21338, size: 0x8, addend: 0x0, symName: __ZNSt3__114__split_bufferIP6serverRNS_9allocatorIS2_EEE17__destruct_at_endB7v160006EPS2_, symObjAddr: 0x36400, symBinAddr: 0x100037054, symSize: 0x2C }
  - { offsetInCU: 0x2136C, offset: 0x2136C, size: 0x8, addend: 0x0, symName: __ZNSt3__114__split_bufferIP6serverRNS_9allocatorIS2_EEE17__destruct_at_endB7v160006EPS2_NS_17integral_constantIbLb0EEE, symObjAddr: 0x3642C, symBinAddr: 0x100037080, symSize: 0x120 }
  - { offsetInCU: 0x213AC, offset: 0x213AC, size: 0x8, addend: 0x0, symName: __ZNKSt3__114__split_bufferIP6serverRNS_9allocatorIS2_EEE9__end_capB7v160006Ev, symObjAddr: 0x3654C, symBinAddr: 0x1000371A0, symSize: 0x28 }
  - { offsetInCU: 0x213D2, offset: 0x213D2, size: 0x8, addend: 0x0, symName: __ZNKSt3__117__compressed_pairIPP6serverRNS_9allocatorIS2_EEE5firstB7v160006Ev, symObjAddr: 0x36574, symBinAddr: 0x1000371C8, symSize: 0x24 }
  - { offsetInCU: 0x213F8, offset: 0x213F8, size: 0x8, addend: 0x0, symName: __ZNSt3__19allocatorI6serverE9constructB7v160006IS1_JRKS1_EEEvPT_DpOT0_, symObjAddr: 0x36598, symBinAddr: 0x1000371EC, symSize: 0x30 }
  - { offsetInCU: 0x2144E, offset: 0x2144E, size: 0x8, addend: 0x0, symName: __ZN6serverC1ERKS_, symObjAddr: 0x365C8, symBinAddr: 0x10003721C, symSize: 0x34 }
  - { offsetInCU: 0x21483, offset: 0x21483, size: 0x8, addend: 0x0, symName: __ZN6serverC2ERKS_, symObjAddr: 0x365FC, symBinAddr: 0x100037250, symSize: 0x20C }
  - { offsetInCU: 0x214B8, offset: 0x214B8, size: 0x8, addend: 0x0, symName: __ZNSt3__13mapINS_12basic_stringIcNS_11char_traitsIcEENS_9allocatorIcEEEES6_NS_4lessIS6_EENS4_INS_4pairIKS6_S6_EEEEEC1B7v160006ERKSD_, symObjAddr: 0x36808, symBinAddr: 0x10003745C, symSize: 0x34 }
  - { offsetInCU: 0x214F1, offset: 0x214F1, size: 0x8, addend: 0x0, symName: __ZNSt3__15dequeI8locationNS_9allocatorIS1_EEEC1ERKS4_, symObjAddr: 0x3683C, symBinAddr: 0x100037490, symSize: 0x34 }
  - { offsetInCU: 0x2152C, offset: 0x2152C, size: 0x8, addend: 0x0, symName: __ZNSt3__13mapINS_12basic_stringIcNS_11char_traitsIcEENS_9allocatorIcEEEES6_NS_4lessIS6_EENS4_INS_4pairIKS6_S6_EEEEEC2B7v160006ERKSD_, symObjAddr: 0x36870, symBinAddr: 0x1000374C4, symSize: 0x3CC }
  - { offsetInCU: 0x21567, offset: 0x21567, size: 0x8, addend: 0x0, symName: __ZNSt3__16__treeINS_12__value_typeINS_12basic_stringIcNS_11char_traitsIcEENS_9allocatorIcEEEES7_EENS_19__map_value_compareIS7_S8_NS_4lessIS7_EELb1EEENS5_IS8_EEEC1ERKSE_, symObjAddr: 0x36C3C, symBinAddr: 0x100037890, symSize: 0x34 }
  - { offsetInCU: 0x215A2, offset: 0x215A2, size: 0x8, addend: 0x0, symName: __ZNSt3__13mapINS_12basic_stringIcNS_11char_traitsIcEENS_9allocatorIcEEEES6_NS_4lessIS6_EENS4_INS_4pairIKS6_S6_EEEEE6insertB7v160006INS_20__map_const_iteratorINS_21__tree_const_iteratorINS_12__value_typeIS6_S6_EEPNS_11__tree_nodeISI_PvEElEEEEEEvT_SP_, symObjAddr: 0x36C70, symBinAddr: 0x1000378C4, symSize: 0x458 }
  - { offsetInCU: 0x21619, offset: 0x21619, size: 0x8, addend: 0x0, symName: __ZNKSt3__13mapINS_12basic_stringIcNS_11char_traitsIcEENS_9allocatorIcEEEES6_NS_4lessIS6_EENS4_INS_4pairIKS6_S6_EEEEE5beginB7v160006Ev, symObjAddr: 0x370C8, symBinAddr: 0x100037D1C, symSize: 0x2B4 }
  - { offsetInCU: 0x21640, offset: 0x21640, size: 0x8, addend: 0x0, symName: __ZNKSt3__13mapINS_12basic_stringIcNS_11char_traitsIcEENS_9allocatorIcEEEES6_NS_4lessIS6_EENS4_INS_4pairIKS6_S6_EEEEE3endB7v160006Ev, symObjAddr: 0x3737C, symBinAddr: 0x100037FD0, symSize: 0x2B4 }
  - { offsetInCU: 0x21667, offset: 0x21667, size: 0x8, addend: 0x0, symName: __ZNSt3__16__treeINS_12__value_typeINS_12basic_stringIcNS_11char_traitsIcEENS_9allocatorIcEEEES7_EENS_19__map_value_compareIS7_S8_NS_4lessIS7_EELb1EEENS5_IS8_EEEC2ERKSE_, symObjAddr: 0x37630, symBinAddr: 0x100038284, symSize: 0x374 }
  - { offsetInCU: 0x216AE, offset: 0x216AE, size: 0x8, addend: 0x0, symName: __ZNSt3__116allocator_traitsINS_9allocatorINS_11__tree_nodeINS_12__value_typeINS_12basic_stringIcNS_11char_traitsIcEENS1_IcEEEES8_EEPvEEEEE37select_on_container_copy_constructionB7v160006ISC_vvEESC_RKSC_, symObjAddr: 0x379A4, symBinAddr: 0x1000385F8, symSize: 0x10 }
  - { offsetInCU: 0x216DD, offset: 0x216DD, size: 0x8, addend: 0x0, symName: __ZNKSt3__16__treeINS_12__value_typeINS_12basic_stringIcNS_11char_traitsIcEENS_9allocatorIcEEEES7_EENS_19__map_value_compareIS7_S8_NS_4lessIS7_EELb1EEENS5_IS8_EEE12__node_allocB7v160006Ev, symObjAddr: 0x379B4, symBinAddr: 0x100038608, symSize: 0x28 }
  - { offsetInCU: 0x21708, offset: 0x21708, size: 0x8, addend: 0x0, symName: __ZNSt3__117__compressed_pairINS_15__tree_end_nodeIPNS_16__tree_node_baseIPvEEEENS_9allocatorINS_11__tree_nodeINS_12__value_typeINS_12basic_stringIcNS_11char_traitsIcEENS7_IcEEEESE_EES3_EEEEEC1B7v160006INS_18__default_init_tagESH_EEOT_OT0_, symObjAddr: 0x379DC, symBinAddr: 0x100038630, symSize: 0x3C }
  - { offsetInCU: 0x21760, offset: 0x21760, size: 0x8, addend: 0x0, symName: __ZNKSt3__16__treeINS_12__value_typeINS_12basic_stringIcNS_11char_traitsIcEENS_9allocatorIcEEEES7_EENS_19__map_value_compareIS7_S8_NS_4lessIS7_EELb1EEENS5_IS8_EEE10value_compB7v160006Ev, symObjAddr: 0x37A18, symBinAddr: 0x10003866C, symSize: 0x28 }
  - { offsetInCU: 0x21786, offset: 0x21786, size: 0x8, addend: 0x0, symName: __ZNKSt3__117__compressed_pairINS_15__tree_end_nodeIPNS_16__tree_node_baseIPvEEEENS_9allocatorINS_11__tree_nodeINS_12__value_typeINS_12basic_stringIcNS_11char_traitsIcEENS7_IcEEEESE_EES3_EEEEE6secondB7v160006Ev, symObjAddr: 0x37A40, symBinAddr: 0x100038694, symSize: 0x24 }
  - { offsetInCU: 0x217AC, offset: 0x217AC, size: 0x8, addend: 0x0, symName: __ZNKSt3__122__compressed_pair_elemINS_9allocatorINS_11__tree_nodeINS_12__value_typeINS_12basic_stringIcNS_11char_traitsIcEENS1_IcEEEES8_EEPvEEEELi1ELb1EE5__getB7v160006Ev, symObjAddr: 0x37A64, symBinAddr: 0x1000386B8, symSize: 0x14 }
  - { offsetInCU: 0x217D2, offset: 0x217D2, size: 0x8, addend: 0x0, symName: __ZNSt3__117__compressed_pairINS_15__tree_end_nodeIPNS_16__tree_node_baseIPvEEEENS_9allocatorINS_11__tree_nodeINS_12__value_typeINS_12basic_stringIcNS_11char_traitsIcEENS7_IcEEEESE_EES3_EEEEEC2B7v160006INS_18__default_init_tagESH_EEOT_OT0_, symObjAddr: 0x37A78, symBinAddr: 0x1000386CC, symSize: 0x40 }
  - { offsetInCU: 0x2182A, offset: 0x2182A, size: 0x8, addend: 0x0, symName: __ZNSt3__122__compressed_pair_elemINS_15__tree_end_nodeIPNS_16__tree_node_baseIPvEEEELi0ELb0EEC2B7v160006ENS_18__default_init_tagE, symObjAddr: 0x37AB8, symBinAddr: 0x10003870C, symSize: 0x2C }
  - { offsetInCU: 0x2185E, offset: 0x2185E, size: 0x8, addend: 0x0, symName: __ZNSt3__122__compressed_pair_elemINS_9allocatorINS_11__tree_nodeINS_12__value_typeINS_12basic_stringIcNS_11char_traitsIcEENS1_IcEEEES8_EEPvEEEELi1ELb1EEC2B7v160006ISC_vEEOT_, symObjAddr: 0x37AE4, symBinAddr: 0x100038738, symSize: 0x18 }
  - { offsetInCU: 0x218A0, offset: 0x218A0, size: 0x8, addend: 0x0, symName: __ZNKSt3__117__compressed_pairImNS_19__map_value_compareINS_12basic_stringIcNS_11char_traitsIcEENS_9allocatorIcEEEENS_12__value_typeIS7_S7_EENS_4lessIS7_EELb1EEEE6secondB7v160006Ev, symObjAddr: 0x37AFC, symBinAddr: 0x100038750, symSize: 0x24 }
  - { offsetInCU: 0x218C6, offset: 0x218C6, size: 0x8, addend: 0x0, symName: __ZNKSt3__122__compressed_pair_elemINS_19__map_value_compareINS_12basic_stringIcNS_11char_traitsIcEENS_9allocatorIcEEEENS_12__value_typeIS7_S7_EENS_4lessIS7_EELb1EEELi1ELb1EE5__getB7v160006Ev, symObjAddr: 0x37B20, symBinAddr: 0x100038774, symSize: 0x14 }
  - { offsetInCU: 0x218EC, offset: 0x218EC, size: 0x8, addend: 0x0, symName: __ZNKSt3__13mapINS_12basic_stringIcNS_11char_traitsIcEENS_9allocatorIcEEEES6_NS_4lessIS6_EENS4_INS_4pairIKS6_S6_EEEEE4cendB7v160006Ev, symObjAddr: 0x37B34, symBinAddr: 0x100038788, symSize: 0x234 }
  - { offsetInCU: 0x21913, offset: 0x21913, size: 0x8, addend: 0x0, symName: __ZNSt3__13mapINS_12basic_stringIcNS_11char_traitsIcEENS_9allocatorIcEEEES6_NS_4lessIS6_EENS4_INS_4pairIKS6_S6_EEEEE6insertB7v160006ENS_20__map_const_iteratorINS_21__tree_const_iteratorINS_12__value_typeIS6_S6_EEPNS_11__tree_nodeISH_PvEElEEEERKSB_, symObjAddr: 0x37D98, symBinAddr: 0x1000389EC, symSize: 0x39C }
  - { offsetInCU: 0x2195D, offset: 0x2195D, size: 0x8, addend: 0x0, symName: __ZNSt3__120__map_const_iteratorINS_21__tree_const_iteratorINS_12__value_typeINS_12basic_stringIcNS_11char_traitsIcEENS_9allocatorIcEEEES8_EEPNS_11__tree_nodeIS9_PvEElEEEC1B7v160006ESE_, symObjAddr: 0x38134, symBinAddr: 0x100038D88, symSize: 0x238 }
  - { offsetInCU: 0x2199B, offset: 0x2199B, size: 0x8, addend: 0x0, symName: __ZNKSt3__120__map_const_iteratorINS_21__tree_const_iteratorINS_12__value_typeINS_12basic_stringIcNS_11char_traitsIcEENS_9allocatorIcEEEES8_EEPNS_11__tree_nodeIS9_PvEElEEEdeB7v160006Ev, symObjAddr: 0x3836C, symBinAddr: 0x100038FC0, symSize: 0x28 }
  - { offsetInCU: 0x219C1, offset: 0x219C1, size: 0x8, addend: 0x0, symName: __ZNSt3__120__map_const_iteratorINS_21__tree_const_iteratorINS_12__value_typeINS_12basic_stringIcNS_11char_traitsIcEENS_9allocatorIcEEEES8_EEPNS_11__tree_nodeIS9_PvEElEEEppB7v160006Ev, symObjAddr: 0x38394, symBinAddr: 0x100038FE8, symSize: 0x2C }
  - { offsetInCU: 0x219E7, offset: 0x219E7, size: 0x8, addend: 0x0, symName: __ZNSt3__16__treeINS_12__value_typeINS_12basic_stringIcNS_11char_traitsIcEENS_9allocatorIcEEEES7_EENS_19__map_value_compareIS7_S8_NS_4lessIS7_EELb1EEENS5_IS8_EEE15__insert_uniqueB7v160006ENS_21__tree_const_iteratorIS8_PNS_11__tree_nodeIS8_PvEElEERKNS_4pairIKS7_S7_EE, symObjAddr: 0x384AC, symBinAddr: 0x100039100, symSize: 0x3A4 }
  - { offsetInCU: 0x21A31, offset: 0x21A31, size: 0x8, addend: 0x0, symName: __ZNSt3__114__map_iteratorINS_15__tree_iteratorINS_12__value_typeINS_12basic_stringIcNS_11char_traitsIcEENS_9allocatorIcEEEES8_EEPNS_11__tree_nodeIS9_PvEElEEEC1B7v160006ESE_, symObjAddr: 0x38850, symBinAddr: 0x1000394A4, symSize: 0x238 }
  - { offsetInCU: 0x21A6F, offset: 0x21A6F, size: 0x8, addend: 0x0, symName: __ZNSt3__16__treeINS_12__value_typeINS_12basic_stringIcNS_11char_traitsIcEENS_9allocatorIcEEEES7_EENS_19__map_value_compareIS7_S8_NS_4lessIS7_EELb1EEENS5_IS8_EEE30__emplace_hint_unique_key_argsIS7_JRKNS_4pairIKS7_S7_EEEEENSG_INS_15__tree_iteratorIS8_PNS_11__tree_nodeIS8_PvEElEEbEENS_21__tree_const_iteratorIS8_SP_lEERKT_DpOT0_, symObjAddr: 0x38A88, symBinAddr: 0x1000396DC, symSize: 0x604 }
  - { offsetInCU: 0x21B54, offset: 0x21B54, size: 0x8, addend: 0x0, symName: __ZNSt3__122__tree_key_value_typesINS_12__value_typeINS_12basic_stringIcNS_11char_traitsIcEENS_9allocatorIcEEEES7_EEE9__get_keyB7v160006IKNS_4pairIKS7_S7_EEEENS_9enable_ifIXsr17__is_same_uncvrefIT_SD_EE5valueERSC_E4typeERSG_, symObjAddr: 0x3908C, symBinAddr: 0x100039CE0, symSize: 0x14 }
  - { offsetInCU: 0x21B81, offset: 0x21B81, size: 0x8, addend: 0x0, symName: __ZNSt3__16__treeINS_12__value_typeINS_12basic_stringIcNS_11char_traitsIcEENS_9allocatorIcEEEES7_EENS_19__map_value_compareIS7_S8_NS_4lessIS7_EELb1EEENS5_IS8_EEE12__find_equalIS7_EERPNS_16__tree_node_baseIPvEENS_21__tree_const_iteratorIS8_PNS_11__tree_nodeIS8_SH_EElEERPNS_15__tree_end_nodeISJ_EESK_RKT_, symObjAddr: 0x390A0, symBinAddr: 0x100039CF4, symSize: 0xC4C }
  - { offsetInCU: 0x21C3A, offset: 0x21C3A, size: 0x8, addend: 0x0, symName: __ZNSt3__16__treeINS_12__value_typeINS_12basic_stringIcNS_11char_traitsIcEENS_9allocatorIcEEEES7_EENS_19__map_value_compareIS7_S8_NS_4lessIS7_EELb1EEENS5_IS8_EEE16__construct_nodeIJRKNS_4pairIKS7_S7_EEEEENS_10unique_ptrINS_11__tree_nodeIS8_PvEENS_22__tree_node_destructorINS5_ISO_EEEEEEDpOT_, symObjAddr: 0x39CEC, symBinAddr: 0x10003A940, symSize: 0x398 }
  - { offsetInCU: 0x21C9F, offset: 0x21C9F, size: 0x8, addend: 0x0, symName: __ZNSt3__16__treeINS_12__value_typeINS_12basic_stringIcNS_11char_traitsIcEENS_9allocatorIcEEEES7_EENS_19__map_value_compareIS7_S8_NS_4lessIS7_EELb1EEENS5_IS8_EEE16__insert_node_atEPNS_15__tree_end_nodeIPNS_16__tree_node_baseIPvEEEERSJ_SJ_, symObjAddr: 0x3A084, symBinAddr: 0x10003ACD8, symSize: 0x370 }
  - { offsetInCU: 0x21CF4, offset: 0x21CF4, size: 0x8, addend: 0x0, symName: __ZNKSt3__110unique_ptrINS_11__tree_nodeINS_12__value_typeINS_12basic_stringIcNS_11char_traitsIcEENS_9allocatorIcEEEES8_EEPvEENS_22__tree_node_destructorINS6_ISB_EEEEE3getB7v160006Ev, symObjAddr: 0x3A3F4, symBinAddr: 0x10003B048, symSize: 0x6C }
  - { offsetInCU: 0x21D1A, offset: 0x21D1A, size: 0x8, addend: 0x0, symName: __ZNSt3__110unique_ptrINS_11__tree_nodeINS_12__value_typeINS_12basic_stringIcNS_11char_traitsIcEENS_9allocatorIcEEEES8_EEPvEENS_22__tree_node_destructorINS6_ISB_EEEEE7releaseB7v160006Ev, symObjAddr: 0x3A460, symBinAddr: 0x10003B0B4, symSize: 0xB8 }
  - { offsetInCU: 0x21D4F, offset: 0x21D4F, size: 0x8, addend: 0x0, symName: __ZNSt3__110unique_ptrINS_11__tree_nodeINS_12__value_typeINS_12basic_stringIcNS_11char_traitsIcEENS_9allocatorIcEEEES8_EEPvEENS_22__tree_node_destructorINS6_ISB_EEEEED1B7v160006Ev, symObjAddr: 0x3A518, symBinAddr: 0x10003B16C, symSize: 0x2C }
  - { offsetInCU: 0x21D79, offset: 0x21D79, size: 0x8, addend: 0x0, symName: __ZNSt3__115__tree_iteratorINS_12__value_typeINS_12basic_stringIcNS_11char_traitsIcEENS_9allocatorIcEEEES7_EEPNS_11__tree_nodeIS8_PvEElEC1B7v160006ESC_, symObjAddr: 0x3A544, symBinAddr: 0x10003B198, symSize: 0x34 }
  - { offsetInCU: 0x21DB2, offset: 0x21DB2, size: 0x8, addend: 0x0, symName: __ZNSt3__14pairINS_15__tree_iteratorINS_12__value_typeINS_12basic_stringIcNS_11char_traitsIcEENS_9allocatorIcEEEES8_EEPNS_11__tree_nodeIS9_PvEElEEbEC1B7v160006ERKSE_RKb, symObjAddr: 0x3A578, symBinAddr: 0x10003B1CC, symSize: 0x3C }
  - { offsetInCU: 0x21DF8, offset: 0x21DF8, size: 0x8, addend: 0x0, symName: __ZNSt3__16__treeINS_12__value_typeINS_12basic_stringIcNS_11char_traitsIcEENS_9allocatorIcEEEES7_EENS_19__map_value_compareIS7_S8_NS_4lessIS7_EELb1EEENS5_IS8_EEE3endB7v160006Ev, symObjAddr: 0x3A5B4, symBinAddr: 0x10003B208, symSize: 0x204 }
  - { offsetInCU: 0x21E1F, offset: 0x21E1F, size: 0x8, addend: 0x0, symName: __ZNSt3__121__tree_const_iteratorINS_12__value_typeINS_12basic_stringIcNS_11char_traitsIcEENS_9allocatorIcEEEES7_EEPNS_11__tree_nodeIS8_PvEElEC1B7v160006ENS_15__tree_iteratorIS8_SC_lEE, symObjAddr: 0x3A7B8, symBinAddr: 0x10003B40C, symSize: 0x238 }
  - { offsetInCU: 0x21E5D, offset: 0x21E5D, size: 0x8, addend: 0x0, symName: __ZNSt3__16__treeINS_12__value_typeINS_12basic_stringIcNS_11char_traitsIcEENS_9allocatorIcEEEES7_EENS_19__map_value_compareIS7_S8_NS_4lessIS7_EELb1EEENS5_IS8_EEE10value_compB7v160006Ev, symObjAddr: 0x3A9F0, symBinAddr: 0x10003B644, symSize: 0x28 }
  - { offsetInCU: 0x21E83, offset: 0x21E83, size: 0x8, addend: 0x0, symName: __ZNKSt3__119__map_value_compareINS_12basic_stringIcNS_11char_traitsIcEENS_9allocatorIcEEEENS_12__value_typeIS6_S6_EENS_4lessIS6_EELb1EEclB7v160006ERKS6_RKS8_, symObjAddr: 0x3AA18, symBinAddr: 0x10003B66C, symSize: 0x50 }
  - { offsetInCU: 0x21EC7, offset: 0x21EC7, size: 0x8, addend: 0x0, symName: __ZNKSt3__121__tree_const_iteratorINS_12__value_typeINS_12basic_stringIcNS_11char_traitsIcEENS_9allocatorIcEEEES7_EEPNS_11__tree_nodeIS8_PvEElEdeB7v160006Ev, symObjAddr: 0x3AA68, symBinAddr: 0x10003B6BC, symSize: 0x28 }
  - { offsetInCU: 0x21EED, offset: 0x21EED, size: 0x8, addend: 0x0, symName: __ZNSt3__16__treeINS_12__value_typeINS_12basic_stringIcNS_11char_traitsIcEENS_9allocatorIcEEEES7_EENS_19__map_value_compareIS7_S8_NS_4lessIS7_EELb1EEENS5_IS8_EEE5beginB7v160006Ev, symObjAddr: 0x3AA90, symBinAddr: 0x10003B6E4, symSize: 0x238 }
  - { offsetInCU: 0x21F14, offset: 0x21F14, size: 0x8, addend: 0x0, symName: __ZNKSt3__119__map_value_compareINS_12basic_stringIcNS_11char_traitsIcEENS_9allocatorIcEEEENS_12__value_typeIS6_S6_EENS_4lessIS6_EELb1EEclB7v160006ERKS8_RKS6_, symObjAddr: 0x3ACC8, symBinAddr: 0x10003B91C, symSize: 0x48 }
  - { offsetInCU: 0x21F58, offset: 0x21F58, size: 0x8, addend: 0x0, symName: __ZNSt3__121__tree_const_iteratorINS_12__value_typeINS_12basic_stringIcNS_11char_traitsIcEENS_9allocatorIcEEEES7_EEPNS_11__tree_nodeIS8_PvEElEmmB7v160006Ev, symObjAddr: 0x3AD10, symBinAddr: 0x10003B964, symSize: 0xA8 }
  - { offsetInCU: 0x21F7E, offset: 0x21F7E, size: 0x8, addend: 0x0, symName: __ZNSt3__16__treeINS_12__value_typeINS_12basic_stringIcNS_11char_traitsIcEENS_9allocatorIcEEEES7_EENS_19__map_value_compareIS7_S8_NS_4lessIS7_EELb1EEENS5_IS8_EEE12__find_equalIS7_EERPNS_16__tree_node_baseIPvEERPNS_15__tree_end_nodeISJ_EERKT_, symObjAddr: 0x3ADB8, symBinAddr: 0x10003BA0C, symSize: 0x3F0 }
  - { offsetInCU: 0x21FEB, offset: 0x21FEB, size: 0x8, addend: 0x0, symName: __ZNKSt3__121__tree_const_iteratorINS_12__value_typeINS_12basic_stringIcNS_11char_traitsIcEENS_9allocatorIcEEEES7_EEPNS_11__tree_nodeIS8_PvEElE8__get_npB7v160006Ev, symObjAddr: 0x3B44C, symBinAddr: 0x10003C0A0, symSize: 0x60 }
  - { offsetInCU: 0x22011, offset: 0x22011, size: 0x8, addend: 0x0, symName: __ZNSt3__115__tree_iteratorINS_12__value_typeINS_12basic_stringIcNS_11char_traitsIcEENS_9allocatorIcEEEES7_EEPNS_11__tree_nodeIS8_PvEElEC1B7v160006EPNS_15__tree_end_nodeIPNS_16__tree_node_baseISA_EEEE, symObjAddr: 0x3B4AC, symBinAddr: 0x10003C100, symSize: 0x34 }
  - { offsetInCU: 0x2204A, offset: 0x2204A, size: 0x8, addend: 0x0, symName: __ZNSt3__115__tree_iteratorINS_12__value_typeINS_12basic_stringIcNS_11char_traitsIcEENS_9allocatorIcEEEES7_EEPNS_11__tree_nodeIS8_PvEElEC2B7v160006EPNS_15__tree_end_nodeIPNS_16__tree_node_baseISA_EEEE, symObjAddr: 0x3B4E0, symBinAddr: 0x10003C134, symSize: 0x70 }
  - { offsetInCU: 0x22083, offset: 0x22083, size: 0x8, addend: 0x0, symName: __ZNSt3__121__tree_const_iteratorINS_12__value_typeINS_12basic_stringIcNS_11char_traitsIcEENS_9allocatorIcEEEES7_EEPNS_11__tree_nodeIS8_PvEElEC2B7v160006ENS_15__tree_iteratorIS8_SC_lEE, symObjAddr: 0x3B550, symBinAddr: 0x10003C1A4, symSize: 0x270 }
  - { offsetInCU: 0x220C1, offset: 0x220C1, size: 0x8, addend: 0x0, symName: __ZNSt3__117__compressed_pairImNS_19__map_value_compareINS_12basic_stringIcNS_11char_traitsIcEENS_9allocatorIcEEEENS_12__value_typeIS7_S7_EENS_4lessIS7_EELb1EEEE6secondB7v160006Ev, symObjAddr: 0x3B7C0, symBinAddr: 0x10003C414, symSize: 0x24 }
  - { offsetInCU: 0x220E7, offset: 0x220E7, size: 0x8, addend: 0x0, symName: __ZNSt3__122__compressed_pair_elemINS_19__map_value_compareINS_12basic_stringIcNS_11char_traitsIcEENS_9allocatorIcEEEENS_12__value_typeIS7_S7_EENS_4lessIS7_EELb1EEELi1ELb1EE5__getB7v160006Ev, symObjAddr: 0x3B7E4, symBinAddr: 0x10003C438, symSize: 0x14 }
  - { offsetInCU: 0x2210D, offset: 0x2210D, size: 0x8, addend: 0x0, symName: __ZNKSt3__14lessINS_12basic_stringIcNS_11char_traitsIcEENS_9allocatorIcEEEEEclB7v160006ERKS6_S9_, symObjAddr: 0x3B7F8, symBinAddr: 0x10003C44C, symSize: 0x34 }
  - { offsetInCU: 0x22151, offset: 0x22151, size: 0x8, addend: 0x0, symName: __ZNKSt3__112__value_typeINS_12basic_stringIcNS_11char_traitsIcEENS_9allocatorIcEEEES6_E11__get_valueB7v160006Ev, symObjAddr: 0x3B82C, symBinAddr: 0x10003C480, symSize: 0x14 }
  - { offsetInCU: 0x22177, offset: 0x22177, size: 0x8, addend: 0x0, symName: __ZNKSt3__112basic_stringIcNS_11char_traitsIcEENS_9allocatorIcEEE7compareB7v160006ERKS5_, symObjAddr: 0x3B878, symBinAddr: 0x10003C4CC, symSize: 0x238 }
  - { offsetInCU: 0x221B0, offset: 0x221B0, size: 0x8, addend: 0x0, symName: __ZNKSt3__112basic_stringIcNS_11char_traitsIcEENS_9allocatorIcEEE7compareINS_17basic_string_viewIcS2_EEEENS_9enable_ifIXsr33__can_be_converted_to_string_viewIcS2_T_EE5valueEiE4typeERKSA_, symObjAddr: 0x3BAB0, symBinAddr: 0x10003C704, symSize: 0x51C }
  - { offsetInCU: 0x2223B, offset: 0x2223B, size: 0x8, addend: 0x0, symName: __ZNKSt3__112basic_stringIcNS_11char_traitsIcEENS_9allocatorIcEEEcvNS_17basic_string_viewIcS2_EEB7v160006Ev, symObjAddr: 0x3BFCC, symBinAddr: 0x10003CC20, symSize: 0x228 }
  - { offsetInCU: 0x22262, offset: 0x22262, size: 0x8, addend: 0x0, symName: __ZNKSt3__117basic_string_viewIcNS_11char_traitsIcEEE4sizeB7v160006Ev, symObjAddr: 0x3C1F4, symBinAddr: 0x10003CE48, symSize: 0x64 }
  - { offsetInCU: 0x22288, offset: 0x22288, size: 0x8, addend: 0x0, symName: __ZNSt3__111char_traitsIcE7compareEPKcS3_m, symObjAddr: 0x3C258, symBinAddr: 0x10003CEAC, symSize: 0x8C }
  - { offsetInCU: 0x222C7, offset: 0x222C7, size: 0x8, addend: 0x0, symName: __ZNKSt3__117basic_string_viewIcNS_11char_traitsIcEEE4dataB7v160006Ev, symObjAddr: 0x3C2E4, symBinAddr: 0x10003CF38, symSize: 0x60 }
  - { offsetInCU: 0x222ED, offset: 0x222ED, size: 0x8, addend: 0x0, symName: __ZNSt3__117basic_string_viewIcNS_11char_traitsIcEEEC1B7v160006EPKcm, symObjAddr: 0x3C378, symBinAddr: 0x10003CFCC, symSize: 0x3C }
  - { offsetInCU: 0x22335, offset: 0x22335, size: 0x8, addend: 0x0, symName: __ZNSt3__117basic_string_viewIcNS_11char_traitsIcEEEC2B7v160006EPKcm, symObjAddr: 0x3C3B4, symBinAddr: 0x10003D008, symSize: 0xBC }
  - { offsetInCU: 0x2237D, offset: 0x2237D, size: 0x8, addend: 0x0, symName: __ZNKSt3__116__tree_node_baseIPvE15__parent_unsafeB7v160006Ev, symObjAddr: 0x3C72C, symBinAddr: 0x10003D380, symSize: 0x64 }
  - { offsetInCU: 0x223A3, offset: 0x223A3, size: 0x8, addend: 0x0, symName: __ZNKSt3__16__treeINS_12__value_typeINS_12basic_stringIcNS_11char_traitsIcEENS_9allocatorIcEEEES7_EENS_19__map_value_compareIS7_S8_NS_4lessIS7_EELb1EEENS5_IS8_EEE10__root_ptrEv, symObjAddr: 0x3C790, symBinAddr: 0x10003D3E4, symSize: 0x24 }
  - { offsetInCU: 0x223C9, offset: 0x223C9, size: 0x8, addend: 0x0, symName: __ZNSt3__121__tree_const_iteratorINS_12__value_typeINS_12basic_stringIcNS_11char_traitsIcEENS_9allocatorIcEEEES7_EEPNS_11__tree_nodeIS8_PvEElEppB7v160006Ev, symObjAddr: 0x3C8BC, symBinAddr: 0x10003D510, symSize: 0xA8 }
  - { offsetInCU: 0x223EF, offset: 0x223EF, size: 0x8, addend: 0x0, symName: __ZNSt3__116allocator_traitsINS_9allocatorINS_11__tree_nodeINS_12__value_typeINS_12basic_stringIcNS_11char_traitsIcEENS1_IcEEEES8_EEPvEEEEE8allocateB7v160006ERSC_m, symObjAddr: 0x3CB5C, symBinAddr: 0x10003D7B0, symSize: 0x2C }
  - { offsetInCU: 0x22422, offset: 0x22422, size: 0x8, addend: 0x0, symName: __ZNSt3__122__tree_node_destructorINS_9allocatorINS_11__tree_nodeINS_12__value_typeINS_12basic_stringIcNS_11char_traitsIcEENS1_IcEEEES8_EEPvEEEEEC1B7v160006ERSC_b, symObjAddr: 0x3CB88, symBinAddr: 0x10003D7DC, symSize: 0x48 }
  - { offsetInCU: 0x2246F, offset: 0x2246F, size: 0x8, addend: 0x0, symName: __ZNSt3__110unique_ptrINS_11__tree_nodeINS_12__value_typeINS_12basic_stringIcNS_11char_traitsIcEENS_9allocatorIcEEEES8_EEPvEENS_22__tree_node_destructorINS6_ISB_EEEEEC1B7v160006ILb1EvEEPSB_NS_16__dependent_typeINS_27__unique_ptr_deleter_sfinaeISE_EEXT_EE20__good_rval_ref_typeE, symObjAddr: 0x3CBD0, symBinAddr: 0x10003D824, symSize: 0x3C }
  - { offsetInCU: 0x224C0, offset: 0x224C0, size: 0x8, addend: 0x0, symName: __ZNSt3__116allocator_traitsINS_9allocatorINS_11__tree_nodeINS_12__value_typeINS_12basic_stringIcNS_11char_traitsIcEENS1_IcEEEES8_EEPvEEEEE9constructB7v160006INS_4pairIKS8_S8_EEJRKSH_EvEEvRSC_PT_DpOT0_, symObjAddr: 0x3CC0C, symBinAddr: 0x10003D860, symSize: 0x34 }
  - { offsetInCU: 0x22517, offset: 0x22517, size: 0x8, addend: 0x0, symName: __ZNKSt3__110unique_ptrINS_11__tree_nodeINS_12__value_typeINS_12basic_stringIcNS_11char_traitsIcEENS_9allocatorIcEEEES8_EEPvEENS_22__tree_node_destructorINS6_ISB_EEEEEptB7v160006Ev, symObjAddr: 0x3CC40, symBinAddr: 0x10003D894, symSize: 0x6C }
  - { offsetInCU: 0x2253D, offset: 0x2253D, size: 0x8, addend: 0x0, symName: __ZNSt3__110unique_ptrINS_11__tree_nodeINS_12__value_typeINS_12basic_stringIcNS_11char_traitsIcEENS_9allocatorIcEEEES8_EEPvEENS_22__tree_node_destructorINS6_ISB_EEEEE11get_deleterB7v160006Ev, symObjAddr: 0x3CCAC, symBinAddr: 0x10003D900, symSize: 0x24 }
  - { offsetInCU: 0x22563, offset: 0x22563, size: 0x8, addend: 0x0, symName: __ZNSt3__19allocatorINS_11__tree_nodeINS_12__value_typeINS_12basic_stringIcNS_11char_traitsIcEENS0_IcEEEES7_EEPvEEE8allocateB7v160006Em, symObjAddr: 0x3CCD0, symBinAddr: 0x10003D924, symSize: 0x90 }
  - { offsetInCU: 0x22597, offset: 0x22597, size: 0x8, addend: 0x0, symName: __ZNSt3__116allocator_traitsINS_9allocatorINS_11__tree_nodeINS_12__value_typeINS_12basic_stringIcNS_11char_traitsIcEENS1_IcEEEES8_EEPvEEEEE8max_sizeB7v160006ISC_vEEmRKSC_, symObjAddr: 0x3CD60, symBinAddr: 0x10003D9B4, symSize: 0x24 }
  - { offsetInCU: 0x225C5, offset: 0x225C5, size: 0x8, addend: 0x0, symName: __ZNKSt3__19allocatorINS_11__tree_nodeINS_12__value_typeINS_12basic_stringIcNS_11char_traitsIcEENS0_IcEEEES7_EEPvEEE8max_sizeB7v160006Ev, symObjAddr: 0x3CD84, symBinAddr: 0x10003D9D8, symSize: 0x18 }
  - { offsetInCU: 0x225EB, offset: 0x225EB, size: 0x8, addend: 0x0, symName: __ZNSt3__122__tree_node_destructorINS_9allocatorINS_11__tree_nodeINS_12__value_typeINS_12basic_stringIcNS_11char_traitsIcEENS1_IcEEEES8_EEPvEEEEEC2B7v160006ERSC_b, symObjAddr: 0x3CD9C, symBinAddr: 0x10003D9F0, symSize: 0xF0 }
  - { offsetInCU: 0x22633, offset: 0x22633, size: 0x8, addend: 0x0, symName: __ZNSt3__110unique_ptrINS_11__tree_nodeINS_12__value_typeINS_12basic_stringIcNS_11char_traitsIcEENS_9allocatorIcEEEES8_EEPvEENS_22__tree_node_destructorINS6_ISB_EEEEEC2B7v160006ILb1EvEEPSB_NS_16__dependent_typeINS_27__unique_ptr_deleter_sfinaeISE_EEXT_EE20__good_rval_ref_typeE, symObjAddr: 0x3CE8C, symBinAddr: 0x10003DAE0, symSize: 0x230 }
  - { offsetInCU: 0x2268A, offset: 0x2268A, size: 0x8, addend: 0x0, symName: __ZNSt3__117__compressed_pairIPNS_11__tree_nodeINS_12__value_typeINS_12basic_stringIcNS_11char_traitsIcEENS_9allocatorIcEEEES8_EEPvEENS_22__tree_node_destructorINS6_ISB_EEEEEC1B7v160006IRSC_SF_EEOT_OT0_, symObjAddr: 0x3D0BC, symBinAddr: 0x10003DD10, symSize: 0x3C }
  - { offsetInCU: 0x226E2, offset: 0x226E2, size: 0x8, addend: 0x0, symName: __ZNSt3__117__compressed_pairIPNS_11__tree_nodeINS_12__value_typeINS_12basic_stringIcNS_11char_traitsIcEENS_9allocatorIcEEEES8_EEPvEENS_22__tree_node_destructorINS6_ISB_EEEEEC2B7v160006IRSC_SF_EEOT_OT0_, symObjAddr: 0x3D0F8, symBinAddr: 0x10003DD4C, symSize: 0x48 }
  - { offsetInCU: 0x2273A, offset: 0x2273A, size: 0x8, addend: 0x0, symName: __ZNSt3__122__compressed_pair_elemIPNS_11__tree_nodeINS_12__value_typeINS_12basic_stringIcNS_11char_traitsIcEENS_9allocatorIcEEEES8_EEPvEELi0ELb0EEC2B7v160006IRSC_vEEOT_, symObjAddr: 0x3D140, symBinAddr: 0x10003DD94, symSize: 0xB0 }
  - { offsetInCU: 0x2277C, offset: 0x2277C, size: 0x8, addend: 0x0, symName: __ZNSt3__122__compressed_pair_elemINS_22__tree_node_destructorINS_9allocatorINS_11__tree_nodeINS_12__value_typeINS_12basic_stringIcNS_11char_traitsIcEENS2_IcEEEES9_EEPvEEEEEELi1ELb0EEC2B7v160006ISE_vEEOT_, symObjAddr: 0x3D1F0, symBinAddr: 0x10003DE44, symSize: 0x38 }
  - { offsetInCU: 0x227BE, offset: 0x227BE, size: 0x8, addend: 0x0, symName: __ZNSt3__19allocatorINS_11__tree_nodeINS_12__value_typeINS_12basic_stringIcNS_11char_traitsIcEENS0_IcEEEES7_EEPvEEE9constructB7v160006INS_4pairIKS7_S7_EEJRKSF_EEEvPT_DpOT0_, symObjAddr: 0x3D228, symBinAddr: 0x10003DE7C, symSize: 0x30 }
  - { offsetInCU: 0x22814, offset: 0x22814, size: 0x8, addend: 0x0, symName: __ZNSt3__14pairIKNS_12basic_stringIcNS_11char_traitsIcEENS_9allocatorIcEEEES6_EC1ERKS8_, symObjAddr: 0x3D258, symBinAddr: 0x10003DEAC, symSize: 0x34 }
  - { offsetInCU: 0x22848, offset: 0x22848, size: 0x8, addend: 0x0, symName: __ZNSt3__14pairIKNS_12basic_stringIcNS_11char_traitsIcEENS_9allocatorIcEEEES6_EC2ERKS8_, symObjAddr: 0x3D28C, symBinAddr: 0x10003DEE0, symSize: 0x84 }
  - { offsetInCU: 0x2287C, offset: 0x2287C, size: 0x8, addend: 0x0, symName: __ZNKSt3__117__compressed_pairIPNS_11__tree_nodeINS_12__value_typeINS_12basic_stringIcNS_11char_traitsIcEENS_9allocatorIcEEEES8_EEPvEENS_22__tree_node_destructorINS6_ISB_EEEEE5firstB7v160006Ev, symObjAddr: 0x3D310, symBinAddr: 0x10003DF64, symSize: 0x24 }
  - { offsetInCU: 0x228A2, offset: 0x228A2, size: 0x8, addend: 0x0, symName: __ZNKSt3__122__compressed_pair_elemIPNS_11__tree_nodeINS_12__value_typeINS_12basic_stringIcNS_11char_traitsIcEENS_9allocatorIcEEEES8_EEPvEELi0ELb0EE5__getB7v160006Ev, symObjAddr: 0x3D334, symBinAddr: 0x10003DF88, symSize: 0x14 }
  - { offsetInCU: 0x228C8, offset: 0x228C8, size: 0x8, addend: 0x0, symName: __ZNSt3__117__compressed_pairIPNS_11__tree_nodeINS_12__value_typeINS_12basic_stringIcNS_11char_traitsIcEENS_9allocatorIcEEEES8_EEPvEENS_22__tree_node_destructorINS6_ISB_EEEEE6secondB7v160006Ev, symObjAddr: 0x3D348, symBinAddr: 0x10003DF9C, symSize: 0x28 }
  - { offsetInCU: 0x228EE, offset: 0x228EE, size: 0x8, addend: 0x0, symName: __ZNSt3__122__compressed_pair_elemINS_22__tree_node_destructorINS_9allocatorINS_11__tree_nodeINS_12__value_typeINS_12basic_stringIcNS_11char_traitsIcEENS2_IcEEEES9_EEPvEEEEEELi1ELb0EE5__getB7v160006Ev, symObjAddr: 0x3D370, symBinAddr: 0x10003DFC4, symSize: 0x14 }
  - { offsetInCU: 0x22914, offset: 0x22914, size: 0x8, addend: 0x0, symName: __ZNSt3__16__treeINS_12__value_typeINS_12basic_stringIcNS_11char_traitsIcEENS_9allocatorIcEEEES7_EENS_19__map_value_compareIS7_S8_NS_4lessIS7_EELb1EEENS5_IS8_EEE4sizeB7v160006Ev, symObjAddr: 0x3DC2C, symBinAddr: 0x10003E880, symSize: 0x28 }
  - { offsetInCU: 0x2293A, offset: 0x2293A, size: 0x8, addend: 0x0, symName: __ZNSt3__116__tree_node_baseIPvE12__set_parentB7v160006EPS2_, symObjAddr: 0x3E394, symBinAddr: 0x10003EFE8, symSize: 0x74 }
  - { offsetInCU: 0x2296F, offset: 0x2296F, size: 0x8, addend: 0x0, symName: __ZNSt3__117__compressed_pairImNS_19__map_value_compareINS_12basic_stringIcNS_11char_traitsIcEENS_9allocatorIcEEEENS_12__value_typeIS7_S7_EENS_4lessIS7_EELb1EEEE5firstB7v160006Ev, symObjAddr: 0x3E408, symBinAddr: 0x10003F05C, symSize: 0x24 }
  - { offsetInCU: 0x22995, offset: 0x22995, size: 0x8, addend: 0x0, symName: __ZNSt3__117__compressed_pairIPNS_11__tree_nodeINS_12__value_typeINS_12basic_stringIcNS_11char_traitsIcEENS_9allocatorIcEEEES8_EEPvEENS_22__tree_node_destructorINS6_ISB_EEEEE5firstB7v160006Ev, symObjAddr: 0x3E42C, symBinAddr: 0x10003F080, symSize: 0x24 }
  - { offsetInCU: 0x229BB, offset: 0x229BB, size: 0x8, addend: 0x0, symName: __ZNSt3__122__compressed_pair_elemIPNS_11__tree_nodeINS_12__value_typeINS_12basic_stringIcNS_11char_traitsIcEENS_9allocatorIcEEEES8_EEPvEELi0ELb0EE5__getB7v160006Ev, symObjAddr: 0x3E450, symBinAddr: 0x10003F0A4, symSize: 0x14 }
  - { offsetInCU: 0x229E1, offset: 0x229E1, size: 0x8, addend: 0x0, symName: __ZNSt3__110unique_ptrINS_11__tree_nodeINS_12__value_typeINS_12basic_stringIcNS_11char_traitsIcEENS_9allocatorIcEEEES8_EEPvEENS_22__tree_node_destructorINS6_ISB_EEEEED2B7v160006Ev, symObjAddr: 0x3E464, symBinAddr: 0x10003F0B8, symSize: 0x30 }
  - { offsetInCU: 0x22A0B, offset: 0x22A0B, size: 0x8, addend: 0x0, symName: __ZNSt3__110unique_ptrINS_11__tree_nodeINS_12__value_typeINS_12basic_stringIcNS_11char_traitsIcEENS_9allocatorIcEEEES8_EEPvEENS_22__tree_node_destructorINS6_ISB_EEEEE5resetB7v160006EPSB_, symObjAddr: 0x3E494, symBinAddr: 0x10003F0E8, symSize: 0xEC }
  - { offsetInCU: 0x22A4F, offset: 0x22A4F, size: 0x8, addend: 0x0, symName: __ZNSt3__122__tree_node_destructorINS_9allocatorINS_11__tree_nodeINS_12__value_typeINS_12basic_stringIcNS_11char_traitsIcEENS1_IcEEEES8_EEPvEEEEEclB7v160006EPSB_, symObjAddr: 0x3E580, symBinAddr: 0x10003F1D4, symSize: 0x17C }
  - { offsetInCU: 0x22A84, offset: 0x22A84, size: 0x8, addend: 0x0, symName: __ZNSt3__115__tree_iteratorINS_12__value_typeINS_12basic_stringIcNS_11char_traitsIcEENS_9allocatorIcEEEES7_EEPNS_11__tree_nodeIS8_PvEElEC2B7v160006ESC_, symObjAddr: 0x3E6FC, symBinAddr: 0x10003F350, symSize: 0x70 }
  - { offsetInCU: 0x22ABD, offset: 0x22ABD, size: 0x8, addend: 0x0, symName: __ZNSt3__14pairINS_15__tree_iteratorINS_12__value_typeINS_12basic_stringIcNS_11char_traitsIcEENS_9allocatorIcEEEES8_EEPNS_11__tree_nodeIS9_PvEElEEbEC2B7v160006ERKSE_RKb, symObjAddr: 0x3E76C, symBinAddr: 0x10003F3C0, symSize: 0x120 }
  - { offsetInCU: 0x22B03, offset: 0x22B03, size: 0x8, addend: 0x0, symName: __ZNSt3__114__map_iteratorINS_15__tree_iteratorINS_12__value_typeINS_12basic_stringIcNS_11char_traitsIcEENS_9allocatorIcEEEES8_EEPNS_11__tree_nodeIS9_PvEElEEEC2B7v160006ESE_, symObjAddr: 0x3E88C, symBinAddr: 0x10003F4E0, symSize: 0x204 }
  - { offsetInCU: 0x22B41, offset: 0x22B41, size: 0x8, addend: 0x0, symName: __ZNSt3__120__map_const_iteratorINS_21__tree_const_iteratorINS_12__value_typeINS_12basic_stringIcNS_11char_traitsIcEENS_9allocatorIcEEEES8_EEPNS_11__tree_nodeIS9_PvEElEEEC2B7v160006ESE_, symObjAddr: 0x3EA90, symBinAddr: 0x10003F6E4, symSize: 0x204 }
  - { offsetInCU: 0x22B7F, offset: 0x22B7F, size: 0x8, addend: 0x0, symName: __ZNKSt3__121__tree_const_iteratorINS_12__value_typeINS_12basic_stringIcNS_11char_traitsIcEENS_9allocatorIcEEEES7_EEPNS_11__tree_nodeIS8_PvEElEptB7v160006Ev, symObjAddr: 0x3EC94, symBinAddr: 0x10003F8E8, symSize: 0x2C }
  - { offsetInCU: 0x22BA5, offset: 0x22BA5, size: 0x8, addend: 0x0, symName: __ZNSt3__114pointer_traitsIPKNS_12__value_typeINS_12basic_stringIcNS_11char_traitsIcEENS_9allocatorIcEEEES7_EEE10pointer_toB7v160006ERS9_, symObjAddr: 0x3ECC0, symBinAddr: 0x10003F914, symSize: 0x14 }
  - { offsetInCU: 0x22BC8, offset: 0x22BC8, size: 0x8, addend: 0x0, symName: __ZNKSt3__16__treeINS_12__value_typeINS_12basic_stringIcNS_11char_traitsIcEENS_9allocatorIcEEEES7_EENS_19__map_value_compareIS7_S8_NS_4lessIS7_EELb1EEENS5_IS8_EEE5beginB7v160006Ev, symObjAddr: 0x3ECD4, symBinAddr: 0x10003F928, symSize: 0x238 }
  - { offsetInCU: 0x22BEF, offset: 0x22BEF, size: 0x8, addend: 0x0, symName: __ZNKSt3__16__treeINS_12__value_typeINS_12basic_stringIcNS_11char_traitsIcEENS_9allocatorIcEEEES7_EENS_19__map_value_compareIS7_S8_NS_4lessIS7_EELb1EEENS5_IS8_EEE12__begin_nodeB7v160006Ev, symObjAddr: 0x3EF0C, symBinAddr: 0x10003FB60, symSize: 0x14 }
  - { offsetInCU: 0x22C15, offset: 0x22C15, size: 0x8, addend: 0x0, symName: __ZNSt3__121__tree_const_iteratorINS_12__value_typeINS_12basic_stringIcNS_11char_traitsIcEENS_9allocatorIcEEEES7_EEPNS_11__tree_nodeIS8_PvEElEC1B7v160006EPNS_15__tree_end_nodeIPNS_16__tree_node_baseISA_EEEE, symObjAddr: 0x3EF20, symBinAddr: 0x10003FB74, symSize: 0x34 }
  - { offsetInCU: 0x22C4E, offset: 0x22C4E, size: 0x8, addend: 0x0, symName: __ZNSt3__121__tree_const_iteratorINS_12__value_typeINS_12basic_stringIcNS_11char_traitsIcEENS_9allocatorIcEEEES7_EEPNS_11__tree_nodeIS8_PvEElEC2B7v160006EPNS_15__tree_end_nodeIPNS_16__tree_node_baseISA_EEEE, symObjAddr: 0x3EF54, symBinAddr: 0x10003FBA8, symSize: 0x70 }
  - { offsetInCU: 0x22C87, offset: 0x22C87, size: 0x8, addend: 0x0, symName: __ZNKSt3__16__treeINS_12__value_typeINS_12basic_stringIcNS_11char_traitsIcEENS_9allocatorIcEEEES7_EENS_19__map_value_compareIS7_S8_NS_4lessIS7_EELb1EEENS5_IS8_EEE3endB7v160006Ev, symObjAddr: 0x3EFC4, symBinAddr: 0x10003FC18, symSize: 0x204 }
  - { offsetInCU: 0x22CAE, offset: 0x22CAE, size: 0x8, addend: 0x0, symName: __ZNSt3__15dequeI8locationNS_9allocatorIS1_EEEC2ERKS4_, symObjAddr: 0x3F1C8, symBinAddr: 0x10003FE1C, symSize: 0x540 }
  - { offsetInCU: 0x22CEB, offset: 0x22CEB, size: 0x8, addend: 0x0, symName: __ZNSt3__116allocator_traitsINS_9allocatorI8locationEEE37select_on_container_copy_constructionB7v160006IS3_vvEES3_RKS3_, symObjAddr: 0x3F708, symBinAddr: 0x10004035C, symSize: 0x10 }
  - { offsetInCU: 0x22D1A, offset: 0x22D1A, size: 0x8, addend: 0x0, symName: __ZNKSt3__15dequeI8locationNS_9allocatorIS1_EEE7__allocB7v160006Ev, symObjAddr: 0x3F718, symBinAddr: 0x10004036C, symSize: 0x28 }
  - { offsetInCU: 0x22D40, offset: 0x22D40, size: 0x8, addend: 0x0, symName: __ZNSt3__19allocatorIP8locationEC1B7v160006IS1_EERKNS0_IT_EE, symObjAddr: 0x3F740, symBinAddr: 0x100040394, symSize: 0x34 }
  - { offsetInCU: 0x22D7D, offset: 0x22D7D, size: 0x8, addend: 0x0, symName: __ZNSt3__114__split_bufferIP8locationNS_9allocatorIS2_EEEC1ERKS4_, symObjAddr: 0x3F774, symBinAddr: 0x1000403C8, symSize: 0x34 }
  - { offsetInCU: 0x22DB7, offset: 0x22DB7, size: 0x8, addend: 0x0, symName: __ZNSt3__117__compressed_pairImNS_9allocatorI8locationEEEC1B7v160006IiRNS1_IPS2_EEEEOT_OT0_, symObjAddr: 0x3F7A8, symBinAddr: 0x1000403FC, symSize: 0x3C }
  - { offsetInCU: 0x22E0F, offset: 0x22E0F, size: 0x8, addend: 0x0, symName: __ZNSt3__15dequeI8locationNS_9allocatorIS1_EEE8__appendINS_16__deque_iteratorIS1_PKS1_RS7_PKS8_lLl16EEEEEvT_SD_PNS_9enable_ifIXsr27__is_cpp17_forward_iteratorISD_EE5valueEvE4typeE, symObjAddr: 0x3F7E4, symBinAddr: 0x100040438, symSize: 0x968 }
  - { offsetInCU: 0x22F18, offset: 0x22F18, size: 0x8, addend: 0x0, symName: __ZNKSt3__15dequeI8locationNS_9allocatorIS1_EEE5beginB7v160006Ev, symObjAddr: 0x4014C, symBinAddr: 0x100040DA0, symSize: 0x330 }
  - { offsetInCU: 0x22F4F, offset: 0x22F4F, size: 0x8, addend: 0x0, symName: __ZNKSt3__15dequeI8locationNS_9allocatorIS1_EEE3endB7v160006Ev, symObjAddr: 0x4047C, symBinAddr: 0x1000410D0, symSize: 0x308 }
  - { offsetInCU: 0x22F96, offset: 0x22F96, size: 0x8, addend: 0x0, symName: __ZNKSt3__117__compressed_pairImNS_9allocatorI8locationEEE6secondB7v160006Ev, symObjAddr: 0x40784, symBinAddr: 0x1000413D8, symSize: 0x24 }
  - { offsetInCU: 0x22FBC, offset: 0x22FBC, size: 0x8, addend: 0x0, symName: __ZNKSt3__122__compressed_pair_elemINS_9allocatorI8locationEELi1ELb1EE5__getB7v160006Ev, symObjAddr: 0x407A8, symBinAddr: 0x1000413FC, symSize: 0x14 }
  - { offsetInCU: 0x22FE2, offset: 0x22FE2, size: 0x8, addend: 0x0, symName: __ZNSt3__19allocatorIP8locationEC2B7v160006IS1_EERKNS0_IT_EE, symObjAddr: 0x407BC, symBinAddr: 0x100041410, symSize: 0x30 }
  - { offsetInCU: 0x2301F, offset: 0x2301F, size: 0x8, addend: 0x0, symName: __ZNSt3__114__split_bufferIP8locationNS_9allocatorIS2_EEEC2ERKS4_, symObjAddr: 0x407EC, symBinAddr: 0x100041440, symSize: 0x2C8 }
  - { offsetInCU: 0x2305B, offset: 0x2305B, size: 0x8, addend: 0x0, symName: __ZNSt3__117__compressed_pairIPP8locationNS_9allocatorIS2_EEEC1B7v160006IDnRKS5_EEOT_OT0_, symObjAddr: 0x40AB4, symBinAddr: 0x100041708, symSize: 0x3C }
  - { offsetInCU: 0x230B3, offset: 0x230B3, size: 0x8, addend: 0x0, symName: __ZNSt3__117__compressed_pairIPP8locationNS_9allocatorIS2_EEEC2B7v160006IDnRKS5_EEOT_OT0_, symObjAddr: 0x40AF0, symBinAddr: 0x100041744, symSize: 0x44 }
  - { offsetInCU: 0x2310B, offset: 0x2310B, size: 0x8, addend: 0x0, symName: __ZNSt3__122__compressed_pair_elemINS_9allocatorIP8locationEELi1ELb1EEC2B7v160006IRKS4_vEEOT_, symObjAddr: 0x40B34, symBinAddr: 0x100041788, symSize: 0x18 }
  - { offsetInCU: 0x2314D, offset: 0x2314D, size: 0x8, addend: 0x0, symName: __ZNSt3__117__compressed_pairImNS_9allocatorI8locationEEEC2B7v160006IiRNS1_IPS2_EEEEOT_OT0_, symObjAddr: 0x40B4C, symBinAddr: 0x1000417A0, symSize: 0x44 }
  - { offsetInCU: 0x231A5, offset: 0x231A5, size: 0x8, addend: 0x0, symName: __ZNSt3__122__compressed_pair_elemINS_9allocatorI8locationEELi1ELb1EEC2B7v160006IRNS1_IPS2_EEvEEOT_, symObjAddr: 0x40B90, symBinAddr: 0x1000417E4, symSize: 0x34 }
  - { offsetInCU: 0x231E7, offset: 0x231E7, size: 0x8, addend: 0x0, symName: __ZNSt3__19allocatorI8locationEC2B7v160006IPS1_EERKNS0_IT_EE, symObjAddr: 0x40BC4, symBinAddr: 0x100041818, symSize: 0x30 }
  - { offsetInCU: 0x23224, offset: 0x23224, size: 0x8, addend: 0x0, symName: __ZNSt3__15dequeI8locationNS_9allocatorIS1_EEE19__add_back_capacityEm, symObjAddr: 0x40F50, symBinAddr: 0x100041BA4, symSize: 0x124C }
  - { offsetInCU: 0x23324, offset: 0x23324, size: 0x8, addend: 0x0, symName: __ZNKSt3__116__deque_iteratorI8locationPS1_RS1_PS2_lLl16EEplB7v160006El, symObjAddr: 0x4219C, symBinAddr: 0x100042DF0, symSize: 0x218 }
  - { offsetInCU: 0x23391, offset: 0x23391, size: 0x8, addend: 0x0, symName: __ZNSt3__15dequeI8locationNS_9allocatorIS1_EEE13__deque_rangeC1B7v160006ENS_16__deque_iteratorIS1_PS1_RS1_PS7_lLl16EEESA_, symObjAddr: 0x423B4, symBinAddr: 0x100043008, symSize: 0x310 }
  - { offsetInCU: 0x233E2, offset: 0x233E2, size: 0x8, addend: 0x0, symName: __ZNKSt3__15dequeI8locationNS_9allocatorIS1_EEE13__deque_range5beginB7v160006Ev, symObjAddr: 0x426C4, symBinAddr: 0x100043318, symSize: 0x34 }
  - { offsetInCU: 0x23408, offset: 0x23408, size: 0x8, addend: 0x0, symName: __ZNKSt3__15dequeI8locationNS_9allocatorIS1_EEE13__deque_range3endB7v160006Ev, symObjAddr: 0x426F8, symBinAddr: 0x10004334C, symSize: 0x29C }
  - { offsetInCU: 0x2342F, offset: 0x2342F, size: 0x8, addend: 0x0, symName: __ZNKSt3__15dequeI8locationNS_9allocatorIS1_EEE13__deque_rangedeB7v160006Ev, symObjAddr: 0x429C8, symBinAddr: 0x10004361C, symSize: 0x3D0 }
  - { offsetInCU: 0x2346A, offset: 0x2346A, size: 0x8, addend: 0x0, symName: __ZNSt3__15dequeI8locationNS_9allocatorIS1_EEE21_ConstructTransactionC1B7v160006EPS4_RNS4_19__deque_block_rangeE, symObjAddr: 0x42D98, symBinAddr: 0x1000439EC, symSize: 0x3C }
  - { offsetInCU: 0x234B2, offset: 0x234B2, size: 0x8, addend: 0x0, symName: __ZNKSt3__116__deque_iteratorI8locationPKS1_RS2_PKS3_lLl16EEdeB7v160006Ev, symObjAddr: 0x42DE8, symBinAddr: 0x100043A3C, symSize: 0x64 }
  - { offsetInCU: 0x234D8, offset: 0x234D8, size: 0x8, addend: 0x0, symName: __ZNSt3__116__deque_iteratorI8locationPKS1_RS2_PKS3_lLl16EEppB7v160006Ev, symObjAddr: 0x42E4C, symBinAddr: 0x100043AA0, symSize: 0x1F8 }
  - { offsetInCU: 0x234FE, offset: 0x234FE, size: 0x8, addend: 0x0, symName: __ZNSt3__15dequeI8locationNS_9allocatorIS1_EEE21_ConstructTransactionD1B7v160006Ev, symObjAddr: 0x43044, symBinAddr: 0x100043C98, symSize: 0x2C }
  - { offsetInCU: 0x23528, offset: 0x23528, size: 0x8, addend: 0x0, symName: __ZNSt3__15dequeI8locationNS_9allocatorIS1_EEE13__deque_rangeppB7v160006Ev, symObjAddr: 0x43070, symBinAddr: 0x100043CC4, symSize: 0x1C0 }
  - { offsetInCU: 0x2354E, offset: 0x2354E, size: 0x8, addend: 0x0, symName: __ZNSt3__15dequeI8locationNS_9allocatorIS1_EEE18__recommend_blocksB7v160006Em, symObjAddr: 0x43828, symBinAddr: 0x10004447C, symSize: 0x40 }
  - { offsetInCU: 0x23572, offset: 0x23572, size: 0x8, addend: 0x0, symName: __ZNSt3__114__split_bufferIP8locationRNS_9allocatorIS2_EEE5beginB7v160006Ev, symObjAddr: 0x43868, symBinAddr: 0x1000444BC, symSize: 0x64 }
  - { offsetInCU: 0x23598, offset: 0x23598, size: 0x8, addend: 0x0, symName: __ZNSt3__114__split_bufferIP8locationRNS_9allocatorIS2_EEE3endB7v160006Ev, symObjAddr: 0x438CC, symBinAddr: 0x100044520, symSize: 0x64 }
  - { offsetInCU: 0x235BE, offset: 0x235BE, size: 0x8, addend: 0x0, symName: __ZNSt3__114__split_bufferIP8locationRNS_9allocatorIS2_EEE9push_backB7v160006ERKS2_, symObjAddr: 0x43930, symBinAddr: 0x100044584, symSize: 0xA50 }
  - { offsetInCU: 0x2363D, offset: 0x2363D, size: 0x8, addend: 0x0, symName: __ZNSt3__116__deque_iteratorI8locationPS1_RS1_PS2_lLl16EEpLB7v160006El, symObjAddr: 0x44380, symBinAddr: 0x100044FD4, symSize: 0x3A0 }
  - { offsetInCU: 0x2368F, offset: 0x2368F, size: 0x8, addend: 0x0, symName: __ZNSt3__15dequeI8locationNS_9allocatorIS1_EEE13__deque_rangeC2B7v160006ENS_16__deque_iteratorIS1_PS1_RS1_PS7_lLl16EEESA_, symObjAddr: 0x44720, symBinAddr: 0x100045374, symSize: 0x2A4 }
  - { offsetInCU: 0x236E0, offset: 0x236E0, size: 0x8, addend: 0x0, symName: __ZNSt3__15dequeI8locationNS_9allocatorIS1_EEE19__deque_block_rangeC1B7v160006EPS1_S6_, symObjAddr: 0x44AB4, symBinAddr: 0x100045708, symSize: 0x3C }
  - { offsetInCU: 0x23728, offset: 0x23728, size: 0x8, addend: 0x0, symName: __ZNSt3__15dequeI8locationNS_9allocatorIS1_EEE19__deque_block_rangeC2B7v160006EPS1_S6_, symObjAddr: 0x44AF0, symBinAddr: 0x100045744, symSize: 0xBC }
  - { offsetInCU: 0x23770, offset: 0x23770, size: 0x8, addend: 0x0, symName: __ZNSt3__15dequeI8locationNS_9allocatorIS1_EEE21_ConstructTransactionC2B7v160006EPS4_RNS4_19__deque_block_rangeE, symObjAddr: 0x44BAC, symBinAddr: 0x100045800, symSize: 0x204 }
  - { offsetInCU: 0x237B8, offset: 0x237B8, size: 0x8, addend: 0x0, symName: __ZNSt3__15dequeI8locationNS_9allocatorIS1_EEE21_ConstructTransactionD2B7v160006Ev, symObjAddr: 0x44DB0, symBinAddr: 0x100045A04, symSize: 0x138 }
  - { offsetInCU: 0x237E2, offset: 0x237E2, size: 0x8, addend: 0x0, symName: __ZNKSt3__114__split_bufferIP8locationNS_9allocatorIS2_EEE5beginB7v160006Ev, symObjAddr: 0x44EE8, symBinAddr: 0x100045B3C, symSize: 0x64 }
  - { offsetInCU: 0x23808, offset: 0x23808, size: 0x8, addend: 0x0, symName: __ZNSt3__116__deque_iteratorI8locationPKS1_RS2_PKS3_lLl16EEC1B7v160006ES6_S3_, symObjAddr: 0x44F4C, symBinAddr: 0x100045BA0, symSize: 0x3C }
  - { offsetInCU: 0x23850, offset: 0x23850, size: 0x8, addend: 0x0, symName: __ZNSt3__116__deque_iteratorI8locationPKS1_RS2_PKS3_lLl16EEC2B7v160006ES6_S3_, symObjAddr: 0x44F88, symBinAddr: 0x100045BDC, symSize: 0xBC }
  - { offsetInCU: 0x23898, offset: 0x23898, size: 0x8, addend: 0x0, symName: __ZNSt3__16__treeINS_12__value_typeINS_12basic_stringIcNS_11char_traitsIcEENS_9allocatorIcEEEES7_EENS_19__map_value_compareIS7_S8_NS_4lessIS7_EELb1EEENS5_IS8_EEE5clearEv, symObjAddr: 0x45044, symBinAddr: 0x100045C98, symSize: 0x118 }
  - { offsetInCU: 0x238C0, offset: 0x238C0, size: 0x8, addend: 0x0, symName: __ZNSt3__15dequeI8locationNS_9allocatorIS1_EEE5beginB7v160006Ev, symObjAddr: 0x4515C, symBinAddr: 0x100045DB0, symSize: 0x330 }
  - { offsetInCU: 0x238F7, offset: 0x238F7, size: 0x8, addend: 0x0, symName: __ZNSt3__116allocator_traitsINS_9allocatorI8locationEEE7destroyB7v160006IS2_vEEvRS3_PT_, symObjAddr: 0x454C0, symBinAddr: 0x100046114, symSize: 0x2C }
  - { offsetInCU: 0x23934, offset: 0x23934, size: 0x8, addend: 0x0, symName: __ZNSt3__116__deque_iteratorI8locationPS1_RS1_PS2_lLl16EEppB7v160006Ev, symObjAddr: 0x454EC, symBinAddr: 0x100046140, symSize: 0x1F8 }
  - { offsetInCU: 0x2395A, offset: 0x2395A, size: 0x8, addend: 0x0, symName: __ZNSt3__19allocatorI8locationE7destroyB7v160006EPS1_, symObjAddr: 0x456E4, symBinAddr: 0x100046338, symSize: 0x28 }
  - { offsetInCU: 0x2398E, offset: 0x2398E, size: 0x8, addend: 0x0, symName: __ZNSt3__13mapINS_12basic_stringIcNS_11char_traitsIcEENS_9allocatorIcEEEES6_NS_4lessIS6_EENS4_INS_4pairIKS6_S6_EEEEE25__construct_node_with_keyERSA_, symObjAddr: 0x4570C, symBinAddr: 0x100046360, symSize: 0x41C }
  - { offsetInCU: 0x239E8, offset: 0x239E8, size: 0x8, addend: 0x0, symName: __ZNKSt3__110unique_ptrINS_11__tree_nodeINS_12__value_typeINS_12basic_stringIcNS_11char_traitsIcEENS_9allocatorIcEEEES8_EEPvEENS_21__map_node_destructorINS6_ISB_EEEEE3getB7v160006Ev, symObjAddr: 0x45B28, symBinAddr: 0x10004677C, symSize: 0x6C }
  - { offsetInCU: 0x23A0E, offset: 0x23A0E, size: 0x8, addend: 0x0, symName: __ZNSt3__110unique_ptrINS_11__tree_nodeINS_12__value_typeINS_12basic_stringIcNS_11char_traitsIcEENS_9allocatorIcEEEES8_EEPvEENS_21__map_node_destructorINS6_ISB_EEEEE7releaseB7v160006Ev, symObjAddr: 0x45B94, symBinAddr: 0x1000467E8, symSize: 0xB8 }
  - { offsetInCU: 0x23A43, offset: 0x23A43, size: 0x8, addend: 0x0, symName: __ZNSt3__110unique_ptrINS_11__tree_nodeINS_12__value_typeINS_12basic_stringIcNS_11char_traitsIcEENS_9allocatorIcEEEES8_EEPvEENS_21__map_node_destructorINS6_ISB_EEEEED1B7v160006Ev, symObjAddr: 0x45C4C, symBinAddr: 0x1000468A0, symSize: 0x2C }
  - { offsetInCU: 0x23A6D, offset: 0x23A6D, size: 0x8, addend: 0x0, symName: __ZNSt3__121__map_node_destructorINS_9allocatorINS_11__tree_nodeINS_12__value_typeINS_12basic_stringIcNS_11char_traitsIcEENS1_IcEEEES8_EEPvEEEEEC1B7v160006ERSC_, symObjAddr: 0x45C78, symBinAddr: 0x1000468CC, symSize: 0x34 }
  - { offsetInCU: 0x23AAB, offset: 0x23AAB, size: 0x8, addend: 0x0, symName: __ZNSt3__110unique_ptrINS_11__tree_nodeINS_12__value_typeINS_12basic_stringIcNS_11char_traitsIcEENS_9allocatorIcEEEES8_EEPvEENS_21__map_node_destructorINS6_ISB_EEEEEC1B7v160006ILb1EvEEPSB_NS_16__dependent_typeINS_27__unique_ptr_deleter_sfinaeISE_EEXT_EE20__good_rval_ref_typeE, symObjAddr: 0x45CAC, symBinAddr: 0x100046900, symSize: 0x3C }
  - { offsetInCU: 0x23AFC, offset: 0x23AFC, size: 0x8, addend: 0x0, symName: __ZNSt3__116allocator_traitsINS_9allocatorINS_11__tree_nodeINS_12__value_typeINS_12basic_stringIcNS_11char_traitsIcEENS1_IcEEEES8_EEPvEEEEE9constructB7v160006IKS8_JRSF_EvEEvRSC_PT_DpOT0_, symObjAddr: 0x45CE8, symBinAddr: 0x10004693C, symSize: 0x34 }
  - { offsetInCU: 0x23B53, offset: 0x23B53, size: 0x8, addend: 0x0, symName: __ZNKSt3__110unique_ptrINS_11__tree_nodeINS_12__value_typeINS_12basic_stringIcNS_11char_traitsIcEENS_9allocatorIcEEEES8_EEPvEENS_21__map_node_destructorINS6_ISB_EEEEEptB7v160006Ev, symObjAddr: 0x45D1C, symBinAddr: 0x100046970, symSize: 0x6C }
  - { offsetInCU: 0x23B79, offset: 0x23B79, size: 0x8, addend: 0x0, symName: __ZNSt3__110unique_ptrINS_11__tree_nodeINS_12__value_typeINS_12basic_stringIcNS_11char_traitsIcEENS_9allocatorIcEEEES8_EEPvEENS_21__map_node_destructorINS6_ISB_EEEEE11get_deleterB7v160006Ev, symObjAddr: 0x45D88, symBinAddr: 0x1000469DC, symSize: 0x24 }
  - { offsetInCU: 0x23B9F, offset: 0x23B9F, size: 0x8, addend: 0x0, symName: __ZNSt3__116allocator_traitsINS_9allocatorINS_11__tree_nodeINS_12__value_typeINS_12basic_stringIcNS_11char_traitsIcEENS1_IcEEEES8_EEPvEEEEE9constructB7v160006IS8_JEvEEvRSC_PT_DpOT0_, symObjAddr: 0x45DAC, symBinAddr: 0x100046A00, symSize: 0x2C }
  - { offsetInCU: 0x23BE1, offset: 0x23BE1, size: 0x8, addend: 0x0, symName: __ZNSt3__121__map_node_destructorINS_9allocatorINS_11__tree_nodeINS_12__value_typeINS_12basic_stringIcNS_11char_traitsIcEENS1_IcEEEES8_EEPvEEEEEC2B7v160006ERSC_, symObjAddr: 0x45DD8, symBinAddr: 0x100046A2C, symSize: 0x12C }
  - { offsetInCU: 0x23C1A, offset: 0x23C1A, size: 0x8, addend: 0x0, symName: __ZNSt3__110unique_ptrINS_11__tree_nodeINS_12__value_typeINS_12basic_stringIcNS_11char_traitsIcEENS_9allocatorIcEEEES8_EEPvEENS_21__map_node_destructorINS6_ISB_EEEEEC2B7v160006ILb1EvEEPSB_NS_16__dependent_typeINS_27__unique_ptr_deleter_sfinaeISE_EEXT_EE20__good_rval_ref_typeE, symObjAddr: 0x45F04, symBinAddr: 0x100046B58, symSize: 0x230 }
  - { offsetInCU: 0x23C71, offset: 0x23C71, size: 0x8, addend: 0x0, symName: __ZNSt3__117__compressed_pairIPNS_11__tree_nodeINS_12__value_typeINS_12basic_stringIcNS_11char_traitsIcEENS_9allocatorIcEEEES8_EEPvEENS_21__map_node_destructorINS6_ISB_EEEEEC1B7v160006IRSC_SF_EEOT_OT0_, symObjAddr: 0x46134, symBinAddr: 0x100046D88, symSize: 0x3C }
  - { offsetInCU: 0x23CC9, offset: 0x23CC9, size: 0x8, addend: 0x0, symName: __ZNSt3__117__compressed_pairIPNS_11__tree_nodeINS_12__value_typeINS_12basic_stringIcNS_11char_traitsIcEENS_9allocatorIcEEEES8_EEPvEENS_21__map_node_destructorINS6_ISB_EEEEEC2B7v160006IRSC_SF_EEOT_OT0_, symObjAddr: 0x46170, symBinAddr: 0x100046DC4, symSize: 0x48 }
  - { offsetInCU: 0x23D21, offset: 0x23D21, size: 0x8, addend: 0x0, symName: __ZNSt3__122__compressed_pair_elemINS_21__map_node_destructorINS_9allocatorINS_11__tree_nodeINS_12__value_typeINS_12basic_stringIcNS_11char_traitsIcEENS2_IcEEEES9_EEPvEEEEEELi1ELb0EEC2B7v160006ISE_vEEOT_, symObjAddr: 0x461B8, symBinAddr: 0x100046E0C, symSize: 0x38 }
  - { offsetInCU: 0x23D63, offset: 0x23D63, size: 0x8, addend: 0x0, symName: __ZNSt3__19allocatorINS_11__tree_nodeINS_12__value_typeINS_12basic_stringIcNS_11char_traitsIcEENS0_IcEEEES7_EEPvEEE9constructB7v160006IKS7_JRSD_EEEvPT_DpOT0_, symObjAddr: 0x461F0, symBinAddr: 0x100046E44, symSize: 0x30 }
  - { offsetInCU: 0x23DB9, offset: 0x23DB9, size: 0x8, addend: 0x0, symName: __ZNKSt3__117__compressed_pairIPNS_11__tree_nodeINS_12__value_typeINS_12basic_stringIcNS_11char_traitsIcEENS_9allocatorIcEEEES8_EEPvEENS_21__map_node_destructorINS6_ISB_EEEEE5firstB7v160006Ev, symObjAddr: 0x46220, symBinAddr: 0x100046E74, symSize: 0x24 }
  - { offsetInCU: 0x23DDF, offset: 0x23DDF, size: 0x8, addend: 0x0, symName: __ZNSt3__117__compressed_pairIPNS_11__tree_nodeINS_12__value_typeINS_12basic_stringIcNS_11char_traitsIcEENS_9allocatorIcEEEES8_EEPvEENS_21__map_node_destructorINS6_ISB_EEEEE6secondB7v160006Ev, symObjAddr: 0x46244, symBinAddr: 0x100046E98, symSize: 0x28 }
  - { offsetInCU: 0x23E05, offset: 0x23E05, size: 0x8, addend: 0x0, symName: __ZNSt3__122__compressed_pair_elemINS_21__map_node_destructorINS_9allocatorINS_11__tree_nodeINS_12__value_typeINS_12basic_stringIcNS_11char_traitsIcEENS2_IcEEEES9_EEPvEEEEEELi1ELb0EE5__getB7v160006Ev, symObjAddr: 0x4626C, symBinAddr: 0x100046EC0, symSize: 0x14 }
  - { offsetInCU: 0x23E2B, offset: 0x23E2B, size: 0x8, addend: 0x0, symName: __ZNSt3__19allocatorINS_11__tree_nodeINS_12__value_typeINS_12basic_stringIcNS_11char_traitsIcEENS0_IcEEEES7_EEPvEEE9constructB7v160006IS7_JEEEvPT_DpOT0_, symObjAddr: 0x46280, symBinAddr: 0x100046ED4, symSize: 0x28 }
  - { offsetInCU: 0x23E6D, offset: 0x23E6D, size: 0x8, addend: 0x0, symName: __ZNSt3__117__compressed_pairIPNS_11__tree_nodeINS_12__value_typeINS_12basic_stringIcNS_11char_traitsIcEENS_9allocatorIcEEEES8_EEPvEENS_21__map_node_destructorINS6_ISB_EEEEE5firstB7v160006Ev, symObjAddr: 0x462A8, symBinAddr: 0x100046EFC, symSize: 0x24 }
  - { offsetInCU: 0x23E93, offset: 0x23E93, size: 0x8, addend: 0x0, symName: __ZNSt3__110unique_ptrINS_11__tree_nodeINS_12__value_typeINS_12basic_stringIcNS_11char_traitsIcEENS_9allocatorIcEEEES8_EEPvEENS_21__map_node_destructorINS6_ISB_EEEEED2B7v160006Ev, symObjAddr: 0x462CC, symBinAddr: 0x100046F20, symSize: 0x30 }
  - { offsetInCU: 0x23EBD, offset: 0x23EBD, size: 0x8, addend: 0x0, symName: __ZNSt3__110unique_ptrINS_11__tree_nodeINS_12__value_typeINS_12basic_stringIcNS_11char_traitsIcEENS_9allocatorIcEEEES8_EEPvEENS_21__map_node_destructorINS6_ISB_EEEEE5resetB7v160006EPSB_, symObjAddr: 0x462FC, symBinAddr: 0x100046F50, symSize: 0xEC }
  - { offsetInCU: 0x23F01, offset: 0x23F01, size: 0x8, addend: 0x0, symName: __ZNSt3__121__map_node_destructorINS_9allocatorINS_11__tree_nodeINS_12__value_typeINS_12basic_stringIcNS_11char_traitsIcEENS1_IcEEEES8_EEPvEEEEEclB7v160006EPSB_, symObjAddr: 0x463E8, symBinAddr: 0x10004703C, symSize: 0x23C }
  - { offsetInCU: 0x23F36, offset: 0x23F36, size: 0x8, addend: 0x0, symName: __ZNSt3__116allocator_traitsINS_9allocatorINS_11__tree_nodeINS_12__value_typeINS_12basic_stringIcNS_11char_traitsIcEENS1_IcEEEES8_EEPvEEEEE7destroyB7v160006IS8_vvEEvRSC_PT_, symObjAddr: 0x46624, symBinAddr: 0x100047278, symSize: 0x28 }
  - { offsetInCU: 0x23F71, offset: 0x23F71, size: 0x8, addend: 0x0, symName: __ZNSt3__116allocator_traitsINS_9allocatorINS_11__tree_nodeINS_12__value_typeINS_12basic_stringIcNS_11char_traitsIcEENS1_IcEEEES8_EEPvEEEEE7destroyB7v160006IKS8_vvEEvRSC_PT_, symObjAddr: 0x4664C, symBinAddr: 0x1000472A0, symSize: 0x28 }
...
